(lp0
(F-2.4262240159250497
F1.6939552084695215
F1.4739715295169742
F-1.5613169253330708
F4.7155383754017315
F3.3191792766462203
tp1
a(F0.7783207076960967
F3.231397293912425
F1.5363802560789868
F-1.5791613052611124
F1.603624743202674
F-1.6688838183554915
tp2
a(F-0.28903628181340185
F1.2368752377584005
F0.7251210815091321
F-1.1905720667465007
F1.3859212846272215
F0.9916752742800863
tp3
a(F2.476344397553443
F3.228756547845399
F1.6219325176915427
F-0.3704512273089938
F4.459499916102706
F-0.7619735119817573
tp4
a(F-0.5878131526142871
F3.163115803543115
F4.907797648084281
F-0.673522036879997
F2.087376880714826
F2.8526392832164613
tp5
a(F2.1438633183369187
F3.4137720835584475
F2.6894270310354247
F-0.3625573533372329
F4.927826616351275
F-1.1961337764932862
tp6
a(F-0.7473256032479262
F3.133616993010883
F4.7596547798883115
F-0.3757034123158153
F1.9548284605964448
F-0.6882090791646469
tp7
a(F1.1525902070494443
F4.477392408751861
F5.310217447511214
F0.79333133254867
F5.365544668804729
F3.672674955538832
tp8
a(F2.6308434905854114
F3.2638783747295625
F1.6031654073824808
F2.589366055729374
F1.9375218288173555
F2.619735866509471
tp9
a(F2.0948452521356145
F3.4080710066614337
F1.9288332365499747
F-2.9022845794290744
F1.5140629279333249
F2.311352661620965
tp10
a(F2.2861382054286947
F3.238363822764426
F1.6988019017153522
F-3.2341349200485516
F1.8510884445936773
F2.535759906916597
tp11
a(F2.790602576385089
F4.665842676107893
F5.006220030952009
F-1.5207758084095113
F5.3734119704194425
F1.0800273009354369
tp12
a(F-0.5298098771715607
F1.7063153526605197
F1.3625481631426528
F-1.3673813799970287
F0.6604138472230846
F1.1872822676131731
tp13
a(F2.444346630698124
F3.224878096273115
F1.6450106205144683
F-3.4218996917863684
F1.873754883157306
F2.5343615042153975
tp14
a(F1.8286497446424914
F5.235113577971301
F3.4982993618298877
F-3.2895834278830027
F5.68811183826543
F-1.7665701930180568
tp15
a(F2.6654571217964143
F3.2539342816270382
F1.567660851457398
F-0.6138095592782745
F4.321442187913659
F-0.45211878149570983
tp16
a(F-0.5197625771755382
F2.238091675776679
F2.492983480609978
F-0.9645195268814689
F1.1766230338305448
F1.8862087207240885
tp17
a(F2.6905473391225865
F3.5425333688217333
F2.581940244699324
F-0.8905121591017796
F4.693005873471136
F2.4145266118749107
tp18
a(F2.53884913633157
F3.2235318456624467
F1.5970648313240157
F-0.41977030515761776
F4.340929111110514
F2.6194655377056018
tp19
a(F2.3476715942419952
F3.214081058653356
F1.6604272410144727
F-3.3138902370295815
F1.84015378447651
F2.516706578192777
tp20
a(F2.8768871582368956
F3.429485976260502
F0.5658926067126355
F-1.8910878943553477
F4.80308481561861
F-1.8217440854601519
tp21
a(F-2.344752157611404
F1.460333453744053
F1.7560466395103962
F1.966053558005089
F1.4805517585113377
F-0.1485429246428803
tp22
a(F-0.37700831053425027
F1.4791418152511284
F0.7508248570843998
F1.728007398404312
F5.1417628660810735
F0.849642075568263
tp23
a(F2.881067399054843
F3.2748396291933486
F1.317825925304763
F-1.148432695626912
F4.314179897294703
F3.369111628880834
tp24
a(F-0.5976546875966434
F3.0610400412124954
F4.727575337189642
F-3.640827902047449
F4.283174257720045
F-0.5657596566406718
tp25
a(F0.8471881755450673
F3.681173108581631
F1.826155859265526
F1.3994036253994833
F5.088147808240751
F1.2326335804309894
tp26
a(F-0.5954230138545019
F2.9941563680811587
F4.62124118574003
F-3.5930085822585296
F4.387585666629297
F-0.5589890585329171
tp27
a(F-0.503732644909421
F1.7108768038040025
F1.5637886106733299
F-1.264206026330901
F0.6022330506343119
F-1.8062942257889911
tp28
a(F-1.75053193628738
F2.7057588210273904
F5.834940441085444
F-0.1800609266821663
F4.699138862609172
F3.143276470017711
tp29
a(F-0.46165507207757583
F1.6712842151078504
F1.4067912838775085
F-1.3330684513452098
F0.6892057082723535
F1.3765794670391336
tp30
a(F1.811392913797675
F3.7718420691681955
F0.45593674750139634
F0.476438349904354
F1.3440257093025205
F3.1752411056976557
tp31
a(F0.8703742383826621
F3.5380373462391033
F2.082049546109603
F-1.4898641573950122
F0.8749756229407466
F0.13970369148497408
tp32
a(F0.9092406562072165
F3.5887530699265997
F2.5008701569760916
F-1.6899479146899032
F0.818319026879552
F0.2940269877563657
tp33
a(F2.1428485342042136
F3.5953409657480067
F2.2731428728771736
F-3.455504140275723
F1.141244290627355
F3.679480002669388
tp34
a(F2.7675583171233167
F3.659054392147131
F2.640560223944447
F-0.980653133093643
F4.672153440917057
F2.483508891961548
tp35
a(F-2.375405879668846
F3.1516075413768974
F5.287035376826714
F-1.4188649862060485
F4.496348349029838
F0.9489350357710287
tp36
a(F2.19651936633322
F3.5113354795454508
F2.1400897892460975
F-3.4844742590937083
F1.1827190083514043
F0.5232025320142926
tp37
a(F0.9135225156925357
F3.08509727494053
F0.8402256643989924
F-1.1925723677874518
F2.030309436195796
F0.7894940881232307
tp38
a(F-0.5439926577783522
F1.7847519709325914
F1.0498807000660069
F-1.6419555669900816
F0.8858352241725959
F0.7737576605191676
tp39
a(F-0.7468400086532514
F1.5834493494853477
F2.1417318241096392
F1.0613438649772833
F5.4702449259554795
F2.1211874986902965
tp40
a(F-0.7551306420303061
F2.379706648927825
F4.109632568731753
F2.1682833039299623
F5.4321019195092894
F0.5849784771892939
tp41
a(F2.79094182179384
F3.777465002183561
F2.8492291711414746
F-1.0064849268869493
F4.7296462635668926
F2.407791460856661
tp42
a(F2.3902990141683533
F3.9223634643720984
F2.2637474086709997
F2.2032298043621803
F0.8212072209557816
F3.66540776219659
tp43
a(F2.5059179438140946
F3.043585411133026
F1.3351132265891403
F-3.6690402603053247
F2.1440405189571625
F2.851267542021046
tp44
a(F-0.45676833772406233
F1.6347042596860244
F1.10251918238974
F-1.4609557642556745
F0.8733037790892897
F1.1682458983289004
tp45
a(F-1.7628884940249208
F1.847099510439117
F1.7455139991835118
F1.6699827686176318
F0.618032989503827
F1.4588210267505894
tp46
a(F-2.015716412786715
F1.3136048130331017
F1.394326883402637
F1.968830632856364
F1.3508710681535796
F1.328670844822852
tp47
a(F-2.343698180263689
F2.566414689033552
F4.561402048518374
F1.4174112266026344
F1.1699600733942317
F-1.9727539936679284
tp48
a(F0.9308323090335237
F5.056137004519645
F4.5370779199533064
F-1.2395425546405314
F1.252876236231902
F-0.5887416946732139
tp49
a(F-2.3520318729510508
F1.4590884171209075
F1.7748028885218587
F1.9732419073244942
F1.4049266361055797
F-0.38398086527206077
tp50
a(F-0.6251637675785903
F1.7455696127918654
F1.24870744460229
F-1.5390884239724574
F0.6031734449447728
F0.9439026100746571
tp51
a(F2.3612307076907086
F3.31809343873894
F1.8403536679050578
F-3.340083021283465
F1.6264650577519124
F2.2026096239416146
tp52
a(F1.4500349613549153
F3.2880067548896363
F1.788049661230532
F0.5657160243672202
F4.851104530515486
F3.0880524438962387
tp53
a(F-2.4226974389101974
F2.9162661864298194
F4.86017453882567
F1.542932679883795
F1.4611819234410406
F-1.8902628250221722
tp54
a(F-2.0251881455965144
F1.331193558383116
F1.3656389488705598
F2.0227118963738957
F1.3358516925198802
F1.5579733944858145
tp55
a(F-0.4037868781159408
F1.5734117618118815
F0.9969706040929696
F-1.5132869218248148
F1.0418671908446162
F1.0301675836476913
tp56
a(F-0.8263848186668878
F2.9606291962347773
F4.4373489599836855
F-0.1907787242242674
F1.6356469491236216
F2.15667314369509
tp57
a(F-2.282535352706053
F3.262623329419745
F5.431579977685452
F-1.2416160846833115
F4.292205262336999
F0.8291035583956988
tp58
a(F-1.8125690657465494
F1.7650133916934971
F1.801695206331525
F1.758172886196488
F0.7302082733776778
F1.498899926943602
tp59
a(F-1.6033527725970214
F2.872977345308383
F4.256068491551943
F0.4393190244814885
F1.3040999948084806
F0.21405241046600954
tp60
a(F1.337499395408139
F4.565727685323625
F4.585176655994054
F-1.3534287169644488
F0.8304860491880586
F1.54702106153509
tp61
a(F1.0311291157673381
F4.069127147801145
F2.642545667674586
F1.637079538611941
F5.442260256438156
F1.6879832356609183
tp62
a(F1.0091778830752172
F4.582418604420803
F5.358190239126979
F-2.160526419398411
F1.062416390136316
F0.4269130886654402
tp63
a(F0.9689673167773646
F4.616752415427342
F4.018258673790917
F1.9981801727766024
F5.056820661577137
F2.5613449448792776
tp64
a(F1.630410111109802
F3.332126293868704
F1.9533960649677704
F-2.79446587634381
F1.4223322815926067
F0.11791249518236102
tp65
a(F-0.6541255012117988
F3.1496217181658013
F4.834217704212797
F-0.5255703320956387
F2.0431964298378595
F2.3983305298186925
tp66
a(F-0.5886608158341068
F3.047288366729515
F4.7066460826568495
F-0.5257103978037521
F1.9296442849008657
F-0.4471327023596952
tp67
a(F2.5746843930323413
F3.1463216922110546
F1.4604554707657686
F2.5732994586911673
F2.009043215960279
F2.62263069920099
tp68
a(F1.0814910655397827
F2.9415548909450635
F0.7885038398549388
F-0.9743752050876967
F2.268220258874196
F0.7974031916410365
tp69
a(F1.8677218497054577
F3.438935111969824
F2.179889171938958
F-3.0922752679154986
F1.2509508851674915
F3.4423553155781725
tp70
a(F-0.41723455138097976
F1.6376639541085725
F1.3555804446285118
F-1.4008863630821755
F0.8301856229762499
F1.3879020511783902
tp71
a(F-1.350850702250563
F2.8194869235412914
F4.05949370959173
F-3.0434791873245466
F5.05306897253806
F0.22413908337293798
tp72
a(F-0.8428530413868254
F3.1297421143922395
F4.717705640687848
F-0.16692496843596172
F1.977368328361039
F2.5893071181817717
tp73
a(F-1.4335686143843362
F1.0062073342328148
F0.4591360626496421
F-0.42520564007390566
F1.06634444400121
F-0.23526820886642236
tp74
a(F1.6529970450548077
F5.1269775214209945
F5.827004128301056
F-0.2681066561790304
F5.409675142753203
F2.9853186791080293
tp75
a(F-1.2303045938239903
F2.918305031137784
F4.211243764334208
F-3.1795466346581978
F4.8466011757181855
F3.474103535265093
tp76
a(F2.4201643647375155
F3.093030436098442
F1.454726981271006
F-3.5549944503714856
F2.0246194892547638
F2.3983006264784645
tp77
a(F-0.7023403707564553
F3.1488936744254943
F4.808674598319406
F-3.618268652442585
F4.250339514412096
F-0.5077602627581843
tp78
a(F2.5593967762277927
F3.2181703175919067
F1.5904282738664988
F-3.5677050237015044
F1.9515429264526032
F2.8130407481347124
tp79
a(F0.7737019658721365
F3.291584838051486
F1.270320703260332
F-1.556227906862323
F1.6082665356640844
F-2.0018035988503904
tp80
a(F0.7743102352004
F4.740658025786464
F4.971825415037256
F1.538424216877901
F4.732659693396825
F3.3213282122162706
tp81
a(F2.5180508970207587
F3.2447827271847918
F2.1327937472152563
F-0.8086786772064234
F4.542969236580087
F2.426153383308462
tp82
a(F0.9862931661353577
F3.940984560954163
F2.1942569024704537
F-1.704292097728807
F0.9783060467589945
F1.3248722882578219
tp83
a(F2.6474712670484837
F3.1609100569861917
F1.4355452431989213
F2.4566930531267612
F2.0711666666108095
F2.727750670399856
tp84
a(F-0.8264242044032253
F2.378897458085621
F2.5431898104514623
F-0.6558363875466187
F0.9114485763716549
F-1.4297976979337497
tp85
a(F1.0079424122033205
F4.012922032799145
F2.3708326700598503
F-1.5801168531855259
F0.8842260921567918
F-1.6018992861976242
tp86
a(F2.5624826272077827
F3.279107833886203
F2.164941411938561
F-0.810741955208134
F4.501632740574559
F2.459027321120337
tp87
a(F0.803014396680906
F4.872297622152665
F4.902095710941644
F-1.4871765337089684
F1.592292921003707
F-0.09954057363644786
tp88
a(F0.7887881217685162
F4.81709029523892
F4.924695224348731
F1.5866223681478544
F4.700710502541282
F0.08252135744571391
tp89
a(F2.5825733212461315
F3.2445274452954713
F1.615721672053266
F-0.4698652357494672
F4.338145149675845
F-0.4067278632531505
tp90
a(F1.7936201764703623
F4.066635431655638
F2.790163379409987
F1.3435138297167886
F1.4107460216454848
F2.810263871765475
tp91
a(F-0.38526687016320693
F3.098815957227968
F4.995367738772857
F-1.080914436062896
F2.119958789285
F0.09519099239851148
tp92
a(F2.602405679218778
F3.206091609173582
F1.54578961816089
F-0.5191948339537766
F4.2898134518249975
F2.7068933534332515
tp93
a(F-0.8276985981517466
F2.433284659511277
F3.796128193193802
F-0.7825787986380801
F0.8716605120547195
F3.5570583721229125
tp94
a(F-2.423995167946429
F3.0607044952758686
F4.751733903446591
F-1.5747025415616727
F4.711349740397869
F1.4036769667220805
tp95
a(F-2.348784901708309
F1.5067387438039102
F1.8002034309214452
F-1.191364978526219
F4.841768363656552
F3.0375854965876123
tp96
a(F-0.7820570249716827
F2.425913137369288
F2.7011511301715743
F-0.620966175656136
F0.9994150663516771
F-1.3089493301534194
tp97
a(F2.3678029071023503
F3.810942520313409
F2.425996508831735
F-0.7471970091770319
F5.394259067555677
F0.5132925066663927
tp98
a(F0.7782504416099768
F3.2739445261095703
F1.5682786853078088
F-1.5727335673932785
F1.537752584365963
F-1.7352782463055514
tp99
a(F-2.3587830911957046
F2.621741400178553
F4.6822409792285375
F1.552165122833868
F1.2126068584180052
F-1.8506718372276534
tp100
a(F0.8460131467445707
F3.6956972892044058
F1.853358417176875
F1.3899607467711916
F5.090500580266362
F1.2288847446653
tp101
a(F2.3910480359449515
F3.8680669377330363
F3.6324872650744253
F2.4244514502969503
F0.9521073862985793
F-1.407905795005762
tp102
a(F1.3947598938094734
F4.099148975159695
F0.425320908776165
F-0.2688706096458949
F1.041632644289788
F2.9042020091879053
tp103
a(F-2.3643704438362456
F2.674941187244432
F4.596851623524246
F1.4503729464001351
F1.2517324141519495
F-1.8989222520740068
tp104
a(F-1.4518101283395126
F1.1509578457760898
F0.49366061627718105
F-0.42186920870446365
F0.8855279992155651
F-0.20049398363759074
tp105
a(F0.779847537795576
F4.826741083832992
F4.937653146442353
F1.6146999992535034
F4.719022847777009
F3.260656181444527
tp106
a(F2.9781738606476615
F3.3436172016395322
F0.9721701691950326
F1.5048432166562438
F1.7567031621113125
F0.84309712488127
tp107
a(F2.8561707786435284
F3.185424032374264
F1.2255625810095976
F-1.1354367514453296
F4.257155393109572
F3.4018468108276907
tp108
a(F0.7743978000940419
F3.390417132081919
F1.3083385503561293
F-1.6216440775489578
F1.53524552781222
F4.19695607891195
tp109
a(F2.956219871722027
F4.988886270412184
F5.248473899806013
F-1.6114178110748822
F4.844935869810369
F1.7786678185404023
tp110
a(F-0.3578142352257733
F1.560428799678682
F1.100518857304156
F-1.4796538040995935
F0.9815183347285681
F-1.563081318890075
tp111
a(F-2.3368049112844984
F2.6207278196621577
F4.4288709179729215
F1.4387089421806283
F1.1726741882231548
F-1.8336687569312737
tp112
a(F-0.32873800416803994
F1.534722166317097
F1.1773617757784391
F-1.4129167375849407
F0.998013538342767
F-1.9216444909837367
tp113
a(F0.8637239458681522
F3.819443744621358
F1.2903202295309182
F-1.695588258918809
F1.4760641824445186
F0.5962743291288075
tp114
a(F2.8277406264387186
F4.731803652544567
F5.488848497439419
F1.6669742176840836
F1.1450820314196792
F3.9639032758462402
tp115
a(F-2.32896063210386
F2.473442359707101
F5.052293560940673
F1.4658881387864235
F1.4895833787637216
F0.5413507529416843
tp116
a(F-0.30054933453018
F1.529627216246649
F1.3421219128164281
F-1.4429744399458375
F1.0726776753117553
F1.700254491225559
tp117
a(F-0.46229684259424414
F1.6915671285575118
F1.4257675596114892
F-1.3038993129802163
F0.7181621338299301
F1.7974431168213791
tp118
a(F-0.38636401248922775
F1.6013507883559563
F1.296769328937075
F1.768070555021484
F5.38487285004628
F-1.3289734239104574
tp119
a(F2.7080867613454926
F4.5674966672297685
F4.788546912015889
F-1.2673816667365378
F5.632649117183061
F-1.4310317707226585
tp120
a(F2.440638570924937
F3.346721087122465
F2.6639091898219567
F-2.753021593354627
F1.8886323174676811
F2.0448246240153556
tp121
a(F2.6336430404357345
F2.9397956989213414
F1.063457766424608
F-1.0009655031759142
F4.072965168938075
F3.100334371708038
tp122
a(F2.3414005168563503
F3.7186953746901077
F2.4386701591716258
F0.013645355720649139
F5.185007503102322
F-0.8708544899769617
tp123
a(F0.7656961428396502
F4.855581054398681
F4.97477180021241
F-1.5280917185017522
F1.5567447861227999
F0.1439826777929325
tp124
a(F-1.1239302474807353
F2.5582345262530417
F5.650138029767247
F-2.165278677109566
F1.6062855120084372
F3.104671894170937
tp125
a(F-2.1875039278036845
F1.63978575286185
F2.327456182245151
F2.070508520677593
F1.123147720934585
F-0.6092318197010158
tp126
a(F-0.5225926895098791
F1.7248997322382837
F1.429438994383385
F-1.2544493335866689
F0.6515263213390619
F1.3765504840001443
tp127
a(F2.481534444934322
F3.4880497769490786
F2.0534420883757507
F-3.3912864731837074
F1.5262072191482146
F2.3611056788018674
tp128
a(F-1.423405626000405
F2.221741044807604
F5.839685714382558
F0.4077891053542397
F5.185186888355473
F0.1946447729206806
tp129
a(F-2.1939581872988594
F1.577585770046218
F2.239861125176819
F2.1075508999303194
F1.1970524841518346
F-0.5257681844181911
tp130
a(F2.338468590385803
F3.1592742374790994
F1.577881067168617
F-3.336034702408926
F1.9425518288497412
F2.454942872869689
tp131
a(F-0.6876107578858042
F3.1594885499529313
F4.801113556001881
F-3.592132552298816
F4.22782377953521
F-0.5236038342409534
tp132
a(F0.9817064635105712
F3.9411962816115125
F2.182240317733831
F-1.7115694870966482
F0.9755027188478957
F1.3483238185943442
tp133
a(F1.372504106481055
F2.875037296015315
F0.7163896900203501
F-0.4899793593408833
F2.5275867807851164
F3.6082375777793945
tp134
a(F2.48595353627063
F3.255178526366234
F1.6951556842095152
F-3.4269764616200518
F1.8581232000434078
F2.5508338842365883
tp135
a(F-1.8921532090449305
F1.6686022222858374
F0.6886739329796827
F0.6402281307564234
F0.6654964863831655
F0.5815367005495827
tp136
a(F-0.4174126821371962
F3.241350372121865
F5.2451078440456005
F1.8680166632392687
F4.101968630787052
F3.4139941470374833
tp137
a(F-0.3035416023758722
F1.4929089588157938
F1.148743198139099
F-1.3974203209281524
F1.1038995100458884
F1.2879041652354937
tp138
a(F-0.6322305817309027
F3.229957200703573
F4.971554492698851
F2.529025612977992
F4.119287067290802
F2.718291157811169
tp139
a(F-1.4913810518464183
F2.232486803695139
F2.4597482855751935
F-2.494581814173804
F4.793595748255238
F2.7298851127589048
tp140
a(F2.7294341291087623
F4.59763990371032
F4.893196318080668
F-1.397097951144123
F5.580671739630275
F-1.8757012288097457
tp141
a(F-0.4864156296789568
F1.7069004375675538
F1.4182788978411889
F-1.3118600231514246
F0.6839053286197746
F1.2843745781826545
tp142
a(F-2.3721823031748746
F1.4442036890438792
F1.6558085878153215
F1.9170440643722082
F1.5013688562735548
F-0.18149810061689875
tp143
a(F0.8117630117476393
F3.6134978837853606
F1.6480534312554562
F1.452135850644014
F5.0079673203069195
F1.1852681160611613
tp144
a(F-0.845434591148333
F2.594748343083062
F3.884916252230279
F-3.122548299260038
F5.140823425424058
F-0.8775200616080099
tp145
a(F-2.41115967562541
F1.7106129389050853
F1.5963205936123972
F-1.4996144889996836
F4.718070409051102
F3.288586218722303
tp146
a(F0.7725893635798549
F3.3228700832319915
F1.2371851459900254
F-1.556985645645721
F1.6038601210621186
F4.225121334709933
tp147
a(F-2.4244396518858586
F1.3829837111197227
F1.2451064107270726
F1.6432044651642999
F1.5910280361748834
F0.1185468204740428
tp148
a(F-2.4258613952571366
F1.4448037042347928
F1.2366482570517736
F1.5836940321641766
F1.5702071382662797
F0.22580659947925596
tp149
a(F-0.5063780670863691
F1.742783872405984
F1.6282639524525082
F-1.2643721823559144
F0.6219343045222032
F1.2620160053101088
tp150
a(F0.7863320844422336
F3.3630943907145543
F1.5831559136724256
F-1.5989084408468812
F1.4805163958029262
F-1.7804169662657165
tp151
a(F-0.7027101237489515
F2.8150550008616757
F4.255290218798732
F-0.24914282219712622
F1.5682169069728766
F2.3659020632941994
tp152
a(F-0.6977657899870082
F2.910904944789443
F4.403613886912804
F-3.354705726495957
F4.571309134140833
F-0.7683678274742614
tp153
a(F-0.3329243454853822
F1.5688431662189686
F1.3398328960432009
F-1.3737625876109953
F0.9937233794098763
F1.2194762148905127
tp154
a(F1.8468933384881796
F3.636335905300696
F0.47443819416079996
F0.5213677532393889
F1.5133048473109996
F3.1581713332391277
tp155
a(F-1.3998924879738468
F1.1605105369631261
F0.5028086805685755
F-0.4624346649091622
F1.0416945386021756
F-0.32223681184531183
tp156
a(F-1.675760393238581
F1.219994532678394
F0.476552362940111
F-3.0506917918854284
F5.401616768816933
F3.0646345694775015
tp157
a(F-0.8156422426442602
F1.9179348504521092
F5.556072206863866
F-2.5512126550944054
F0.8751740488043652
F4.147199260464648
tp158
a(F0.9782355366472615
F3.930975516965864
F2.2199747669377587
F-1.682897721152445
F0.9701193913420895
F-1.7361739864160217
tp159
a(F-1.0069071516560095
F3.094477395483333
F4.630092759415266
F-3.0665931579182697
F4.434955716047001
F-0.892043131931343
tp160
a(F-0.774611837400367
F3.228845781222336
F4.879445466632795
F-0.38092860682548724
F2.1822028018307047
F2.6784934311291373
tp161
a(F0.9893320450304555
F3.952644435354581
F2.1992689475435228
F-1.6407056034620897
F0.9523369116709021
F-1.7242571164183873
tp162
a(F-2.172572811914388
F1.722678395919154
F2.514328945986773
F2.128278016323766
F1.1234522907531121
F-0.5481500811181905
tp163
a(F-0.7740556210447163
F1.9116876178228523
F5.5314533828431305
F-2.491131968107977
F0.8952784413023925
F4.199762140786699
tp164
a(F-1.8723472151764764
F1.7505654969105577
F0.8250078346203897
F0.5556074875192116
F0.6852070705656905
F0.4850955378843503
tp165
a(F-1.4244667345609305
F1.7304546101975973
F1.8193345163955796
F-0.3445015228275034
F0.6633877719632367
F-1.3378903992872073
tp166
a(F1.4754006595647757
F4.351951234211649
F3.8498805551110453
F-2.8449115789367294
F0.751512403360926
F1.8719313608638668
tp167
a(F-1.8226093088836517
F1.0875680057662536
F0.48269259920595203
F0.3178012129507502
F1.1356656136660706
F0.05322968347385847
tp168
a(F-1.9208402746101627
F1.1620848579413496
F0.5175886093034661
F0.5373067681864191
F1.0122816334665827
F3.4534423854993945
tp169
a(F1.8813500631884295
F3.34374859735817
F1.4631723958177005
F-0.9659573010636924
F3.7796634469993795
F2.946818460803079
tp170
a(F-0.8352659525399884
F1.7997686889995843
F2.254320527869663
F-1.6687107833523789
F0.607513831757161
F-0.8942814329991811
tp171
a(F-2.101781900371427
F1.5044521933229873
F0.8232907864170196
F-2.233729961469786
F5.182618149241164
F3.6685957541361973
tp172
a(F2.7657090738865935
F3.905588649701149
F0.7587244474295058
F1.1592957850673609
F0.9370761559608618
F1.6277760147039826
tp173
a(F2.903641348955069
F5.293849452269755
F5.556340719133708
F-1.2236936164080117
F4.55504033461548
F1.3599993646454156
tp174
a(F-0.833615649569471
F2.572439714343119
F4.037866968393103
F-0.655371449043268
F1.0210426207531231
F3.5792262887973805
tp175
a(F-2.10926007449877
F1.6633181884836736
F2.5960247176356814
F2.083719004801551
F0.9594681919935439
F2.2831058446435555
tp176
a(F-2.1042866451844353
F1.4767440575077706
F0.7894900091472921
F0.8552585282354596
F1.1714299734603997
F3.622182776698914
tp177
a(F-2.100221331686786
F1.4585281121783236
F2.528254413766078
F1.8335684853978693
F1.1720752007673862
F1.7345280111247128
tp178
a(F-1.9957552522819033
F2.5118708842091206
F5.809644313204336
F-0.5574926388210587
F4.82135244490401
F-0.03267898545231507
tp179
a(F-2.1879077223559484
F1.581999602072271
F2.271147113945547
F-1.034774904546306
F5.111274563390986
F2.5756273173870667
tp180
a(F-0.23792033299337856
F2.9716270721717266
F5.256776874704577
F1.476868234623769
F4.425493196195505
F3.9352768101801177
tp181
a(F1.8015834343889081
F3.731173097512101
F2.3434317159205214
F-1.4769985501903178
F4.56396518403063
F1.4031372825336557
tp182
a(F2.9289128618935116
F3.232028155134856
F0.7399116020968576
F1.426012829198212
F1.7001690662944475
F0.9201570196891335
tp183
a(F0.9685766006237619
F4.700343890427853
F4.083632906379949
F2.03046795802194
F5.079018358290313
F2.5650245097649504
tp184
a(F2.46321840293546
F3.0920973646011185
F1.4615633630213203
F-0.3905430007519606
F4.209469024337347
F-0.4436504933564028
tp185
a(F-0.3860425178004789
F3.238069362478225
F5.320222867204022
F-1.3574921747212845
F2.0696216661302653
F0.37165886747645566
tp186
a(F-0.3934466956995159
F1.5966972593617976
F1.1195276438158057
F-1.3290587267052363
F0.9515188007175662
F1.1896663950072288
tp187
a(F2.871760046320685
F3.6958695106797035
F0.7403334010890398
F-1.890501597009271
F5.036069089983407
F-1.7701494980669534
tp188
a(F2.865305505170612
F4.712354956691294
F5.05357230793545
F1.7172598106589931
F0.9769748876351442
F-1.8667467055539744
tp189
a(F2.8421182951553563
F4.716716830692888
F5.477857058323983
F1.609190485715505
F1.1081102978870054
F3.9735735000686123
tp190
a(F-2.424580301283719
F1.5476243765396895
F1.3354559519924256
F1.5789873441431315
F1.5704352394673717
F0.22629767341583948
tp191
a(F-0.22450671980075695
F1.3453945304475312
F1.0876728404284632
F-1.3860313581369699
F1.2922760359412588
F3.684904042017778
tp192
a(F-0.3016102683770117
F1.2048262834769325
F0.7845967583482665
F-0.9943310131005463
F1.3984797142720002
F3.6161733789114994
tp193
a(F2.9051108296439545
F3.2987763938171932
F0.5997981181002023
F1.2904885834837179
F1.6034829356829803
F1.210584870845364
tp194
a(F-1.9610077970497712
F1.462194958472443
F1.5613665838750515
F1.9000256806865605
F1.1600700308571257
F1.4077706340978708
tp195
a(F-0.8920443245344005
F3.1800194082980906
F4.274784944865736
F-0.5745457475769006
F1.927709894066557
F-0.9440218711380792
tp196
a(F2.059310554765217
F3.2575610398298767
F1.7238785896420448
F-2.767570267116689
F1.8108013486969172
F2.3442344386896283
tp197
a(F-0.8371490264034529
F2.1964560725313502
F2.001413996469498
F2.27395337037106
F5.397538333319302
F1.3942679674051057
tp198
a(F-1.948029752944764
F2.756793102778126
F4.68959038012237
F-2.135790174266628
F4.990212111986
F2.581202729296572
tp199
a(F2.3097534501107013
F3.1229655924995265
F1.546699710420973
F-0.08813348748406687
F4.166059364546478
F-0.3912908839783469
tp200
a.