(lp0
(F0.7732081925674978
F3.2215196583003696
F1.4729503791165275
F-1.5660109392573582
F1.6206910110737744
F-1.7898995533801303
tp1
a(F0.7782545472300771
F4.553885877342758
F4.745220841300238
F1.5430931532073977
F4.73113079007658
F3.357665377136798
tp2
a(F-0.2890669940986774
F1.2363279864778276
F0.7249078970441281
F-1.1904036457044607
F1.3864981380122532
F0.9927307146290587
tp3
a(F-0.7225112936127775
F3.0537626618560516
F4.660215806343894
F-0.35717786108008603
F1.8427756072983368
F2.3239348212258664
tp4
a(F2.6199761752764923
F4.555388938643906
F4.9069974521950215
F-1.4811790353372754
F5.678927516310039
F4.231002659757118
tp5
a(F2.1434165318483873
F3.8010688139300983
F3.5893523061118997
F-0.463809283682472
F5.400750659736115
F-1.4235925812007824
tp6
a(F2.4555532040084542
F3.148803126386511
F1.5226889650935769
F-0.39276131262084657
F4.350211408943365
F2.514173683957465
tp7
a(F1.154633397056989
F4.477312664373882
F5.311328742790396
F0.7895378526922213
F5.367468949399842
F3.670406613558431
tp8
a(F2.630460584255271
F3.26317724736775
F1.6017048165008883
F-0.5521380956379635
F4.343344765555375
F-0.5213909392168992
tp9
a(F2.094849970431897
F3.408432511067255
F1.9293165318019618
F-2.9019905768903307
F1.5134730213335668
F2.3119760228859696
tp10
a(F2.2855021244238443
F3.2387883967293005
F1.6996718159395807
F-3.2329112389322887
F1.8501898847821585
F2.535260383804604
tp11
a(F2.790344388932437
F3.166793125380028
F1.2767613731970364
F-1.0417012342580492
F4.2922956491498345
F3.1777938439214384
tp12
a(F-0.5287599290041918
F1.7059820744705347
F1.3619614771954118
F1.7735887373341352
F5.621680466795581
F-1.954460237403373
tp13
a(F-0.752623438957595
F3.0586411076706965
F4.638975005484884
F-3.4072763720581394
F4.39403467991824
F-0.6627718134110901
tp14
a(F1.8283207221795763
F5.235629731744912
F3.498759724204643
F-0.14900581181229597
F0.5960001168058507
F1.3751439702784412
tp15
a(F2.6654668170390234
F4.554236212399832
F4.715146338737221
F-1.279230941689672
F5.69300714734837
F-1.9383169886496256
tp16
a(F-0.5201359600122185
F2.2382595554203
F2.49293239438303
F-0.9636761728285641
F1.1764529603343685
F1.8852639766295731
tp17
a(F2.690441038524955
F3.539837176477557
F2.575975948402311
F-0.8902658343777129
F4.688866884997643
F2.4157589585328396
tp18
a(F2.539249338044021
F3.2221669257393497
F1.5950461493546466
F-0.4203356891048967
F4.3385834811319235
F2.6213881809742943
tp19
a(F-0.8507949194888794
F3.0693395588626844
F4.623463370582538
F-0.15670539406381226
F1.8504654278562234
F2.459441903037074
tp20
a(F2.876957525045172
F3.4291393017803293
F0.5661695922595944
F1.2502070550968882
F1.480625755703836
F1.318669706802856
tp21
a(F0.8361853665702358
F3.6642005084176117
F1.7567308281291778
F-1.6712645981207581
F1.2183171278161944
F-1.7967389304275185
tp22
a(F-0.3772633071811558
F3.2004418902467493
F5.533023347195999
F-1.6922258029413142
F2.011880387504953
F0.7618284256410363
tp23
a(F2.8814688823758705
F3.275626260049097
F1.3185961898324021
F-1.147877567108022
F4.315971264091154
F3.3697799637202244
tp24
a(F2.6020451133562386
F3.221924192919194
F1.5548622210348535
F-0.5175257726761329
F4.3104649050280655
F-0.509053976034199
tp25
a(F0.8471418788865227
F3.6814298834536854
F1.8258174329544825
F1.3994069704546055
F5.088537971256461
F1.2326191114624747
tp26
a(F-0.595685386081707
F2.9938608221287297
F4.620770773034758
F-0.4508265887570793
F1.8952211571571387
F2.581049508225198
tp27
a(F2.6921981170597284
F4.572289684104597
F4.718625098128491
F-1.3219761448101797
F5.67338319308469
F1.331781445332836
tp28
a(F-1.7509057125763345
F2.7063624261135217
F5.834882527740753
F-0.1808042290922078
F4.698449132062196
F3.1444401165596574
tp29
a(F-0.46233256217840996
F1.671640343024824
F1.4060250080392716
F-1.3318947927676112
F0.6881790532090175
F1.3763348677795715
tp30
a(F-1.4321951914364777
F2.5100654953780848
F5.826598395759366
F-2.7677069258920945
F1.3356214879260477
F3.159337493454181
tp31
a(F0.8700757316068889
F3.5379332041678597
F2.0826531130948607
F-1.490310009752511
F0.874548381878927
F0.14080855281544125
tp32
a(F0.908602560775965
F3.587831791861574
F2.4987531231130977
F-1.6903173143046661
F0.818929121328944
F0.29415301917450715
tp33
a(F2.1418289338673104
F3.5959627310059568
F2.2747748688716434
F-0.31238725443921406
F5.1431989929840976
F0.5367348569215507
tp34
a(F2.767846638642381
F3.657906436900157
F2.6371629741393248
F2.1596077159390883
F1.6128515456760215
F-0.6557699187731743
tp35
a(F-2.375866201444488
F1.4998678875816651
F0.9960982716568975
F-1.8063745984025532
F4.828583281591183
F3.5916076924712375
tp36
a(F2.196365661394325
F3.5117472037390036
F2.140746537718724
F-0.3430499432078644
F5.101245037252568
F3.6659736110314585
tp37
a(F0.9129232914353448
F3.0853689916478415
F0.8405635913106946
F-1.1935242499945702
F2.0297460093345214
F0.7913753252344462
tp38
a(F-0.5438564866506853
F1.7849442368233157
F1.0488167527604024
F-1.6412928739965142
F0.8858556344736518
F0.7731614839065034
tp39
a(F2.428225169437413
F3.8493968651277393
F2.1431534151818985
F-0.8983018190585419
F5.388251491116799
F3.7294767734887175
tp40
a(F-0.7546088705046515
F2.380242824659244
F4.110545048446805
F2.1680606030483744
F5.431609874956953
F0.584997266799616
tp41
a(F2.7908841310565173
F3.7795020350383455
F2.8545093858457826
F-1.0059470138169022
F4.732368352707394
F2.4043910973602185
tp42
a(F-0.7834730695195512
F1.6107140350271847
F2.2614866523858823
F-2.0631513492123794
F0.7711861337270233
F2.182381089940879
tp43
a(F-0.708010036343496
F3.239281251568301
F4.947891459087288
F-0.49609023014899656
F2.178868092948049
F2.776644289098632
tp44
a(F-0.4562285760282584
F1.634578672373746
F1.1027917663618922
F-1.461462335470359
F0.8735475725116841
F1.1687002217628233
tp45
a(F-1.7620963776732474
F1.8476152151721759
F1.7458596697095645
F1.6680877553259137
F0.6166507684720026
F1.4577880347410168
tp46
a(F-2.0156656389680476
F2.7352765597180544
F4.888685257693382
F1.177752572821797
F1.341081784878313
F-0.8358387615119967
tp47
a(F-2.344175070893182
F2.5673872579215207
F4.563227592835577
F1.4175607442518778
F1.1712121860494316
F-1.9736202848880673
tp48
a(F-2.2474990731916877
F1.2261812673054366
F1.7437549483621937
F1.9353465426046352
F1.2374893987097646
F-0.581085922898447
tp49
a(F-2.3519661447863167
F1.4601717464451898
F1.775545924589159
F1.9725097999654224
F1.4038998404724874
F-0.3839388439858613
tp50
a(F-0.6243898761291508
F1.7451069424975176
F1.2487207783753513
F1.602314078946875
F5.678567126254885
F4.086741343782419
tp51
a(F-0.8313865450074921
F2.965523406544793
F4.44350710526978
F-3.3326276803495483
F4.646212725682541
F-0.9884739696565225
tp52
a(F-1.7442600680088705
F2.9942790103535435
F4.4944142301055425
F0.5625759366829494
F1.4026948328834918
F-0.09939391735967393
tp53
a(F-2.4229441158993583
F1.5144204100616445
F1.423633622351913
F1.6815862112070217
F1.5930010607565828
F0.14549047951866065
tp54
a(F-2.0253673928976204
F1.3311702350064631
F1.3654853836368668
F-1.1187091601275807
F4.946927419172315
F-1.5830005055949314
tp55
a(F-0.4029973340770867
F1.5725273474170138
F0.9977151194666191
F-1.5142002629407751
F1.0437730727565346
F1.0320381582127567
tp56
a(F2.3667589488242196
F3.322196834712149
F1.8454146388957218
F-0.19925716037563415
F4.657247328949937
F-0.9331476726737498
tp57
a(F-2.2824648540863626
F3.262683934409098
F5.4324794215535785
F-1.2401326352271562
F4.2924472170393075
F0.8265596819735374
tp58
a(F-1.8123141546344204
F1.7649949729052352
F1.8020382192421143
F1.7577693273293689
F0.7300940655377701
F1.4981286831885254
tp59
a(F-1.602219396522058
F2.8740126869174447
F4.25649471450917
F0.437155028612767
F1.3050754574482197
F0.2147698844446572
tp60
a(F1.3378009844169056
F4.565126333801766
F4.583850630966783
F-1.353393892886114
F0.8294316757616931
F1.5474411219952355
tp61
a(F1.0313825380979826
F4.4962199547330695
F3.6368984481416398
F2.063574423780871
F5.279320832983887
F2.3749838677764763
tp62
a(F-2.236373522385173
F1.6998983250125035
F0.9238382955365797
F1.0737489048196371
F1.125971164960869
F0.4683065041514364
tp63
a(F0.9688658014086249
F4.6173678191117995
F4.01904146132828
F1.9984676934286671
F5.05643343418494
F2.5629181339198137
tp64
a(F-1.5622224848338808
F2.9498252265624307
F4.3282871054182435
F0.34953112395882074
F1.4031726483687192
F0.06980306946956816
tp65
a(F-0.6541844747427461
F3.1494934791808418
F4.833596607064422
F-0.5244867303894024
F2.042596721072672
F2.399114273982378
tp66
a(F-0.5885207841566857
F3.0475430032718167
F4.7073985560247715
F-3.668069381425304
F4.3526217321843275
F2.695409947974468
tp67
a(F2.5735918411796233
F3.146022971779056
F1.4606307741301399
F2.575462999806277
F2.0095290464033835
F2.620672010349344
tp68
a(F1.081379463198639
F2.942760212544113
F0.7880216332065662
F-0.9731557686164475
F2.266215777472339
F0.7954414621892308
tp69
a(F1.867266064920644
F3.4399836090533924
F2.1812476364757774
F-3.0913644888469163
F1.2493013388568341
F3.4424571897965066
tp70
a(F-0.41738166542013194
F1.6373898803695353
F1.355276684143763
F1.7408214277524028
F5.453037080076789
F-1.7532957227360262
tp71
a(F1.8357580435708545
F3.4635747871311082
F2.2231547306194552
F-3.041618042810153
F1.2348231649424326
F3.4105993035736732
tp72
a(F-0.8418357577595101
F3.1299926916227965
F4.718176124358455
F-3.3101726828996556
F4.3052065979035765
F-0.5504709285930183
tp73
a(F-1.43641569196946
F1.0042901054967146
F0.4578487861522612
F-0.41942691410990385
F1.0675259281344318
F-0.23311248176045188
tp74
a(F1.6533136544806586
F5.126834874626501
F5.826901944876548
F-0.2683950922248051
F5.409752919438205
F2.9852877137662213
tp75
a(F1.9612773650492175
F3.364582172511888
F2.071397480421712
F-3.1863166449676283
F1.4351805489155447
F0.38057434256363726
tp76
a(F-0.7886173573854969
F3.1900902695023943
F4.828245775900756
F-3.5287237309049506
F4.232519774272795
F-0.8120954897529808
tp77
a(F-0.7025786680964279
F3.1483030592150407
F4.8074903020129955
F-3.617386099569376
F4.2517659450368885
F-0.5084195734569228
tp78
a(F2.5595101814179966
F3.2182607413675646
F1.5904316812989199
F-3.5680000304639976
F1.951677327440005
F2.8133879752504516
tp79
a(F-2.425601006437077
F2.991408831412186
F5.013932666619443
F-1.5800871853509264
F4.726954601599985
F1.136996215198413
tp80
a(F0.7741174475845684
F4.740908105068911
F4.971433069998364
F1.5394583459949829
F4.732481015167346
F3.320481726116929
tp81
a(F2.5170631356524855
F3.244759891276995
F2.134065990929737
F-0.8059169206252355
F4.543168828798162
F2.4253255484105134
tp82
a(F0.9861513182163062
F3.9404333233157747
F2.194118703176025
F-1.7045595044603603
F0.9791444525082557
F1.3251035289013133
tp83
a(F2.647366732810322
F3.160674792804976
F1.4347611939255953
F2.4564556018853696
F2.0723394077181436
F2.727399140563976
tp84
a(F-0.8266193803520494
F2.891660854535587
F3.7375364001768747
F-0.5041828896505195
F1.4890617716415615
F-1.034499853853012
tp85
a(F-2.165026222473488
F2.2699230323156407
F3.9120082920814054
F-1.582628910940385
F5.4305831040478045
F1.5387047099396491
tp86
a(F2.5624229752660486
F3.2794015660941733
F2.165772545545987
F-0.8103215186998026
F4.502312699015758
F2.4579428663492675
tp87
a(F0.8029302716222384
F4.872244740675123
F4.901318318280092
F-1.4861080209929831
F1.5921344753590108
F-0.0996089684020749
tp88
a(F0.7887485363234962
F3.3712930122970164
F1.3589480028669747
F-1.569082566776845
F1.5502711572611854
F1.1030064930784527
tp89
a(F2.582518607753312
F3.2449934261331395
F1.6162524166449792
F-3.6112786083383948
F1.944779686483098
F2.7348666949129905
tp90
a(F1.7936987259810566
F4.365906153875852
F3.4854869849058754
F1.3002966896111472
F1.5079774444538703
F2.4238486975900555
tp91
a(F-0.3862516361155519
F3.0997780796589347
F4.996089693904778
F-1.080347480684483
F2.1221952823379087
F0.0930361074085253
tp92
a(F-0.5985713840757273
F3.0766993141347783
F4.736173977388841
F-3.6403717228389545
F4.2626139626173085
F2.6491444252539376
tp93
a(F2.348377156699631
F3.848057938934207
F2.4844596985001166
F2.3736070302560632
F0.8504240180743152
F3.5888694601484916
tp94
a(F-2.4238219452616026
F3.0605579707700077
F4.751730022927781
F-1.575141458780333
F4.711577957985266
F1.4036658037177816
tp95
a(F-2.348802310332247
F1.5070111151079228
F1.8005455282227771
F1.9501993538907902
F1.4415200888139592
F-0.10258931883529575
tp96
a(F-0.781884991480729
F2.4255225395676865
F2.700409762679816
F-0.6216255864959875
F0.9990490928058862
F-1.3092850419103752
tp97
a(F-0.8082330895999128
F2.471805958281846
F3.8568830005958454
F-0.7618914862658528
F0.9119085994809648
F3.622481107404611
tp98
a(F0.7781833823556144
F3.2732365723073285
F1.56600976034881
F-1.5712793052817786
F1.5387163202230603
F-1.736012893655043
tp99
a(F-2.3587266151805317
F2.620904424204006
F4.68233448237801
F1.552905601105618
F1.2117016807195238
F-1.8512585703268416
tp100
a(F0.8464350514751824
F4.778120131331963
F4.42798447872312
F-1.1994236993320948
F1.3735240141439737
F-0.34680806211219783
tp101
a(F-0.8066639027175136
F2.8376426364922405
F3.634110020401844
F-0.5411826120729742
F1.4269220242377507
F-1.078790365110284
tp102
a(F1.3933396868854853
F4.097546036631649
F0.42548162984503457
F-0.2711849578062859
F1.0446511716828697
F2.9048513366365922
tp103
a(F-2.3643087716256614
F1.46291065802918
F1.6869687867738763
F1.9043526059861318
F1.4977837996188497
F-0.1691838376236383
tp104
a(F1.7951513547671598
F3.480290760675939
F0.4940652781696366
F-2.7041337078858336
F4.500828212642279
F-0.013930766199363703
tp105
a(F-2.414383809453497
F1.4572711777103207
F1.3456615115618598
F1.6663292270570111
F1.5693097127687727
F0.11755876323520759
tp106
a(F-0.2296480860329578
F1.2789937102963085
F0.971112498087258
F-1.3638515637949407
F1.4131593856249967
F-1.8288656735435378
tp107
a(F2.856359361188944
F4.7159567168127445
F5.057236827811645
F-1.479980354039494
F5.3250665454975055
F1.2327143748007063
tp108
a(F-2.419966800892449
F2.893922478176198
F4.975932980518556
F-1.6474446149203985
F4.792197482995669
F1.0507737435952285
tp109
a(F2.9561768084528657
F3.355693926301603
F1.0338421938784594
F-1.4671623093792014
F4.622256584144562
F-1.9239484400026914
tp110
a(F2.854728926067477
F4.721885568633354
F5.183482391467622
F-1.5438687951709305
F5.272033839330776
F1.5753153969065432
tp111
a(F-2.336671882393315
F1.5383075105460104
F1.8536492489875054
F1.9620064926725151
F1.4195949085322144
F-0.28321295623858755
tp112
a(F2.8777989638195214
F4.748232490529474
F5.105529700368414
F-1.4759540208204172
F5.262843848356154
F1.215918676599645
tp113
a(F0.8637698342124844
F3.820325594685547
F1.289975482836814
F-1.6951402446853203
F1.4749982358437552
F0.5942771949709345
tp114
a(F-0.4131858720369009
F1.5505936043706696
F0.7945248073573157
F1.7443105032987005
F5.204910884161809
F0.834254492766676
tp115
a(F0.8593782180835672
F3.80923287584806
F1.2292798647543335
F-1.6347149748203418
F1.515262385607185
F0.5414190029591781
tp116
a(F-0.3000171589693702
F1.5289480330900973
F1.3423004320802998
F-1.4436904692779193
F1.0741789801498915
F1.7019428548724644
tp117
a(F2.738523982730513
F3.1904647243949333
F1.4263671525044306
F2.318748782531817
F2.040079663769014
F3.5435717240789226
tp118
a(F-0.3862122538569759
F1.6004986440786904
F1.2947083990485952
F1.7688262106925414
F5.383875852488961
F-1.3310877356871904
tp119
a(F-0.49136281514136115
F1.7156949088245799
F1.4943057289637527
F-1.2053114298816814
F0.638888528384475
F1.7172472381258572
tp120
a(F-0.7702716964637
F2.5265922688805995
F2.6658395641236545
F0.4409090783813865
F1.3775557844666693
F2.235975583923177
tp121
a(F-0.5985414443597625
F1.7234319720368343
F1.0634941024158522
F1.6186726666556421
F5.595808520560742
F0.7480496921302953
tp122
a(F2.341092932430536
F3.718558695032975
F2.438856992423151
F0.013845570950230448
F5.185087596841853
F-0.8708392887030516
tp123
a(F-2.4287995064893755
F1.4272054949252617
F1.3077585286518318
F1.6656334670498656
F1.5635895451238557
F0.14388407173349665
tp124
a(F-1.12497277476451
F2.5589608103849044
F5.650563173719058
F-2.1671363154118946
F1.6069191568307692
F3.1055537241990616
tp125
a(F0.9866058230852679
F3.9475024480510665
F2.3275412569463625
F-1.680158726288008
F0.953235048266949
F-1.6902589524737544
tp126
a(F-0.5222165547647647
F1.72487679856869
F1.430201247077771
F1.8861135628952908
F5.6311349984861465
F-1.7640411924843038
tp127
a(F-0.7036844826948698
F2.795390386622382
F4.230276349855494
F-3.387167830978301
F4.745880538784647
F-0.8221563365394684
tp128
a(F-1.4228390762266756
F2.221154907282878
F5.839401405839564
F0.40892604644191394
F5.185695870256836
F0.19433781157208507
tp129
a(F-2.193632212339416
F1.5785560817975357
F2.242011016293778
F2.108292257625592
F1.195738266329307
F-0.5266682745379153
tp130
a(F2.3381103172479354
F3.1591881002057
F1.5779022831958476
F-3.335878926303468
F1.9429440329988363
F2.4539768058882636
tp131
a(F2.519905146350746
F3.123946767186893
F1.4818644089461535
F-3.619377666700207
F2.02622608054102
F2.68404942819833
tp132
a(F0.9816913037239469
F3.9410725708033194
F2.1809564497260503
F-1.7106856210868207
F0.9760245168723652
F1.3496438332531644
tp133
a(F1.371315572811687
F2.8748185522184193
F0.7162941142369722
F-3.6344021068640022
F3.7561013243076755
F0.46907732571369876
tp134
a(F2.486437432726659
F3.2548339460261473
F1.6943548374890622
F-3.427804221641371
F1.8587386543006874
F2.5518081631521055
tp135
a(F-1.8940987449390425
F1.6676519109266854
F0.68739216073413
F0.643220956222229
F0.6683781174349869
F0.5842136818901476
tp136
a(F2.80473887702626
F3.041808541674756
F1.0391494709545295
F-1.2521316864791523
F4.1716854341800484
F3.4389599345836577
tp137
a(F-0.3032217673901219
F1.4924382146748705
F1.1495809674099824
F-1.3983067228288912
F1.1048443621050563
F1.2899609815176396
tp138
a(F2.5821714901070516
F3.0532178955724665
F1.311773346243821
F-0.6373809335220461
F4.161714623177848
F2.787555700112067
tp139
a(F-1.4914094743715887
F2.2313137891339356
F2.4575334612283237
F0.6466084554369754
F1.4899468032853604
F-0.4107827776169261
tp140
a(F-0.47388074449983875
F1.6851121171733665
F1.388050450669401
F-1.3331512085098727
F0.6855739304105665
F1.2714407108128145
tp141
a(F-0.48561933991805295
F1.7066970714880316
F1.4180715788782703
F1.8286101212944113
F5.598439225873774
F-1.8579471961037637
tp142
a(F-2.372319096252267
F2.679982451500925
F4.628154228459988
F1.4395579543959311
F1.2436090225331438
F-1.9530179543912514
tp143
a(F-2.371167476068715
F1.4291933679162354
F1.6487253349533821
F1.9236649720084016
F1.50100346269165
F-0.1786228338281628
tp144
a(F2.3349566584026915
F3.6882278352694633
F2.3979306969276313
F0.024115601128284148
F5.139463725391395
F-0.8380127378410321
tp145
a(F0.7834152649378646
F3.2924257418686262
F1.5956528828994847
F1.5545326105215012
F4.726450902152944
F1.4780365922638772
tp146
a(F0.7728650170975674
F3.3237407237895145
F1.237785154028068
F-1.5567721190784667
F1.603088835498442
F4.224286390593096
tp147
a(F-2.4243090666138105
F1.38301761760154
F1.2454881064048158
F1.643984500715679
F1.5906578058003031
F0.11804941629374484
tp148
a(F-2.4257475933808577
F1.4442882090342621
F1.238009448989857
F-1.556455487710461
F4.711994734770936
F3.365423801055719
tp149
a(F2.688494229060123
F4.5406298628317305
F4.654300630437924
F-1.3195448372235363
F5.655198208329288
F-1.8818120586126088
tp150
a(F0.7864399488755458
F3.364233722180226
F1.5850567671401599
F-1.5996515460981442
F1.4793172939638968
F-1.7806951697693452
tp151
a(F2.4830736101932187
F3.468704649188483
F2.029371856022452
F-3.3952606256710762
F1.55549104646476
F2.409094600067095
tp152
a(F-0.6970358300244648
F2.9102235298227668
F4.403014966272779
F-3.3560126749379413
F4.572427270498675
F-0.768754429507575
tp153
a(F-0.332684328755393
F1.5688230577257838
F1.3398051159599058
F-1.373750176326556
F0.9936855300451716
F1.2194667684676084
tp154
a(F1.8488253830627022
F3.636386467630448
F0.4750517214463639
F0.5243354460237032
F1.5137746963268448
F3.158324340183303
tp155
a(F1.8461618465332723
F5.1230771368629355
F5.780843205126163
F2.5657701505653394
F1.0736824658303374
F-0.3851678614152787
tp156
a(F-1.6725917682125615
F1.2188818844778415
F0.476235901563534
F-3.0570022271056723
F5.4002614898252865
F3.060275554775445
tp157
a(F-0.8157554257552533
F1.9183787679786688
F5.556373170704789
F-2.5522977547968964
F0.8757582019088943
F4.146357711586979
tp158
a(F-2.1961356515585715
F1.5654065537389843
F2.217992303488898
F2.10021158741534
F1.1889250706870684
F-0.5382574485119072
tp159
a(F2.1935752373182127
F3.1881333742072857
F1.6521719403430384
F-3.0849492185925906
F1.8533828358290336
F2.310937073920032
tp160
a(F2.4396909472345154
F3.0546655315143485
F1.4034635767902406
F-3.5641975215893575
F2.1541683692161615
F2.7610000390395903
tp161
a(F0.9889746679439468
F3.9513637747284482
F2.196323064022439
F-1.640971500731766
F0.9536926799725849
F-1.7263742370761408
tp162
a(F-2.1722364938716567
F2.259816711466371
F3.767257740932458
F-1.470468822507212
F5.40681712441533
F1.783659708467664
tp163
a(F-0.7749550461226872
F1.9116488878253342
F5.531643992376416
F-2.4929307424785847
F0.8947133791436215
F4.19842707769253
tp164
a(F-1.8745709672241757
F3.458570551745271
F5.459693063066921
F2.391053267921226
F2.624619623628401
F3.8604629142569475
tp165
a(F-1.4235552443314814
F1.7304245819365338
F1.8201610699174309
F-0.34747988071864266
F0.6639527092788827
F-1.3389027216188572
tp166
a(F-1.7024384598362703
F2.5395321204865384
F3.852710055598141
F0.20824773046381248
F1.5347616800986528
F1.6242614337395769
tp167
a(F-1.823991578220106
F1.0892239530222627
F0.4831998835556625
F-2.8206512524863347
F5.150169846539827
F3.1952556413664164
tp168
a(F-1.9206182432398287
F1.1612055523103761
F0.5177067297996168
F0.5366812114997145
F1.01326053716221
F3.451655930055179
tp169
a(F1.8809785700260997
F3.3431241167169627
F1.4623839656578177
F-0.9657914172383997
F3.7779380473662263
F2.94532574696953
tp170
a(F-0.8350622422105809
F2.5555964283544075
F4.027592794591791
F2.4368813384176518
F5.2139895682293345
F3.5493776866591107
tp171
a(F-2.102258688538871
F1.5047591250305277
F0.8234247035428305
F-2.2330372655982655
F5.182782391992616
F3.6672897304611
tp172
a(F-0.4456136715114277
F2.377387366358246
F5.524165562662126
F-2.0518825533980776
F0.9366079789935583
F1.6278752684265292
tp173
a(F-0.3120790733986617
F0.9901128502542377
F0.7269713680963005
F-1.1532665267374322
F1.7089891139342228
F-1.7741258660311334
tp174
a(F-0.8332539272185706
F2.57259393030913
F4.038603157890881
F-0.6556882807391542
F1.0216306099223893
F3.5807242073412437
tp175
a(F1.0619869163319757
F4.150448896329578
F2.5948066208896323
F-1.5831982550240298
F0.8248460191515359
F1.4909364412916883
tp176
a(F-2.105274299537778
F1.477200386699325
F0.7910336333361951
F0.8577064501385621
F1.1720534829164664
F3.623146569501923
tp177
a(F-2.0999527067977573
F1.9839314134703097
F3.7513544955264195
F1.4953705234354322
F1.1019538642880153
F0.9656356380749713
tp178
a(F-1.9951273904474878
F0.8778226359967128
F0.47304307712407684
F0.5965530866222447
F1.205929249043502
F0.27465762215823497
tp179
a(F-2.1881070639403726
F1.5814509765964821
F2.270650641855597
F2.1072797063714908
F1.1723839998591215
F-0.5665245447766577
tp180
a(F2.968100016899504
F3.3115797158919746
F1.0261431741931089
F1.5195138411637024
F1.809132752926663
F0.7906846564597282
tp181
a(F1.8017206388445017
F3.7315569356347926
F2.3429316822206516
F-1.478643352786991
F4.564430396313873
F1.4030909908935858
tp182
a(F2.9291539157956112
F3.2325600918849444
F0.7393832879425122
F-1.716346315961453
F4.583791519697206
F4.063214006809147
tp183
a(F0.9681166721081468
F3.896838610930149
F2.197848457046311
F1.4252421178823225
F5.27423822891388
F1.3548252936613618
tp184
a(F-0.7457949608640898
F3.1913022373882742
F4.821699775391982
F-0.35957555105405353
F2.0987488969967183
F2.6254295669604732
tp185
a(F-0.3866499030088502
F3.2380963124911735
F5.319476697833364
F-1.3562861234190637
F2.070121118133463
F0.37130152995292126
tp186
a(F-0.3930201725317849
F1.5961920289515619
F1.1189308854702338
F-1.329193331955654
F0.9526842954476983
F1.1908452409937327
tp187
a(F-0.3416465450969053
F0.8644854469501794
F0.7406465726613348
F-1.2018242018526282
F1.9064749358849586
F-1.70389074668959
tp188
a(F2.8652588693138306
F4.712567696426195
F5.053087219296731
F1.7165225555167156
F0.9774004073440539
F-1.8673409207006681
tp189
a(F-0.3993519889383439
F1.5661609857791872
F0.8055497398579902
F1.6844164531206924
F5.243901796302413
F0.8383189517440431
tp190
a(F0.7738296088307556
F3.27384513481518
F1.3358230228299368
F-1.5557272143726522
F1.617376262618913
F-1.9229175906047875
tp191
a(F-0.22441470727057286
F1.345849838895321
F1.0892971161008986
F-1.3873154117755397
F1.2915843692583504
F3.6855018132167365
tp192
a(F-0.30189130964929023
F1.2042137188203876
F0.7837623977364961
F-0.9931428714449053
F1.3987468473560205
F3.6158128937584055
tp193
a(F-0.33494009684735904
F2.9839439690242435
F5.682872593727042
F-1.9400480510151237
F1.643132442836871
F1.223541811559573
tp194
a(F-1.9613863787747092
F1.4621756114982165
F1.5612079504278709
F1.9000632188949136
F1.1601204661611784
F1.4083437345551846
tp195
a(F2.3253438181951527
F4.062362353635443
F4.274608095484709
F2.3029414005805995
F0.8510616080825718
F-1.743444093100424
tp196
a(F2.0598878327739385
F3.257252021718299
F1.7236128437317286
F0.37312633199311973
F4.471872731871342
F-0.7953804759249277
tp197
a(F2.375298847746296
F3.1220932754603865
F2.0019621880459355
F-0.7193955719398013
F4.422864497578422
F2.3393235507125185
tp198
a(F-1.9480920901689294
F1.4752401090127272
F1.5938762480905324
F2.019175950331699
F1.1229024964332401
F1.4372648426874282
tp199
a(F2.310104482942335
F3.122537889679769
F1.545511078868535
F-0.08905602811718083
F4.164334440709416
F-0.38915515531151473
tp200
a.