(lp0
(lp1
F2.5575935646100714
aF3.2826872630117796
aF1.665693554178068
aF-0.3896640848281958
aF1.9201704510209803
aF0.5093300471686026
aa(lp2
F2.505704399038497
aF3.170740683738562
aF1.5200316284808784
aF-0.4013851256622809
aF1.920130395448286
aF0.5089930936437508
aa(lp3
F2.882329463921401
aF3.2284867468836005
aF1.1689152663729203
aF-1.2827708500448578
aF2.3977239881990453
aF0.14605888548716894
aa(lp4
F2.5539219426411766
aF3.3857512380424666
aF1.8092648597302379
aF-0.4087355812027651
aF2.037223689176062
aF-0.635579117379705
aa(lp5
F2.9011574397699924
aF4.834554426102595
aF5.293301319093058
aF1.690191520222224
aF1.2800648886044428
aF-1.3885436820175308
aa(lp6
F2.730372982704111
aF4.619219588689788
aF4.799682153106591
aF1.6283618396529551
aF1.082511599051669
aF1.0261354623306582
aa(lp7
F2.7261210726583593
aF4.6242899139649305
aF5.061995964143238
aF1.625087015368103
aF1.0822974216937444
aF1.1439926062957975
aa(lp8
F2.89841659606295
aF4.8338648955349495
aF5.316413292519341
aF1.6319085973429948
aF1.2729880590603768
aF1.1880246962088137
aa(lp9
F2.923077686096229
aF4.948927032232765
aF5.466770826993488
aF1.5720912944058503
aF1.4251037805237177
aF1.1980425737727476
aa(lp10
F2.7808363395930575
aF4.649470815366
aF4.802478079697676
aF1.633439365383266
aF1.0068391439129156
aF1.2447835839162398
aa(lp11
F2.9250343137651242
aF5.135381012506977
aF5.602484375334619
aF1.8321411005656074
aF1.5490585962704237
aF4.320689135026103
aa(lp12
F5.8919528708366125
aF2.476112105287399
aF5.606861914002464
aF4.309143269349554
aF1.3391363200154878
aF3.4715264004496413
aa(lp13
F5.996006060793424
aF2.8405759785329625
aF5.564245922474035
aF4.4594798392601405
aF1.5720617097429619
aF4.42437337203401
aa(lp14
F5.985483971705895
aF2.6944547272652866
aF5.523272523979666
aF4.527734979400979
aF1.3893508423244096
aF4.509453943089525
aa.