(lp0
(lp1
F2.8860177476847664
aF4.804892491428969
aF4.437488317569563
aF1.3804641493495171
aF1.0528939433421458
aF1.2332520958983944
aa(lp2
F2.885935714065452
aF4.804827611064424
aF4.437494353684306
aF1.3805821259670235
aF1.053015220072262
aF1.2333863096109905
aa(lp3
F2.886064796754493
aF4.8048555447729004
aF4.43752302490124
aF1.3806642970874683
aF1.0527306252949833
aF1.233334864443158
aa(lp4
F2.886084373965284
aF4.804899793677788
aF4.437505664513037
aF1.3804034114456276
aF1.0529590889207778
aF1.2332865864201343
aa(lp5
F2.8860194494651257
aF4.804878141685411
aF4.437434058154198
aF1.3806304837947878
aF1.0532268878763507
aF1.23344010442052
aa(lp6
F2.8859981959540413
aF4.804888841900012
aF4.437437548828456
aF1.3807617938788188
aF1.0531308489986868
aF1.2329594903374872
aa(lp7
F2.8860500341468995
aF4.8048356498668285
aF4.437484405405034
aF1.3803679058190546
aF1.0531878261453596
aF1.2334528515497452
aa(lp8
F2.8859830179572636
aF4.804838386184849
aF4.437438002456895
aF1.3806458448162364
aF1.0531260770652553
aF1.2332525450886553
aa.