(lp0
ccopy_reg
_reconstructor
p1
(cgpd_ros.msg._GraspConfig
GraspConfig
p2
c__builtin__
object
p3
Ntp4
Rp5
(lp6
g1
(cgeometry_msgs.msg._Point
Point
p7
g3
Ntp8
Rp9
(lp10
F0.13649898964620993
aF0.3889398129025108
aF0.4943130797227789
abag1
(cgeometry_msgs.msg._Vector3
Vector3
p11
g3
Ntp12
Rp13
(lp14
F-0.017925973788593452
aF0.10075219779432273
aF-0.9947500460433991
abag1
(g11
g3
Ntp15
Rp16
(lp17
F0.9921707947784435
aF0.12477836827187132
aF-0.005241450192602692
abag1
(g11
g3
Ntp18
Rp19
(lp20
F0.12359519995712992
aF-0.9870559018875388
aF-0.10220016192029312
abag1
(cstd_msgs.msg._Float32
Float32
p21
g3
Ntp22
Rp23
(lp24
F0.08786337822675705
abag1
(g21
g3
Ntp25
Rp26
(lp27
F148.94253540039062
abag1
(g7
g3
Ntp28
Rp29
(lp30
F0.17247353494167328
aF0.3897635042667389
aF0.4481878876686096
ababag1
(g2
g3
Ntp31
Rp32
(lp33
g1
(g7
g3
Ntp34
Rp35
(lp36
F0.13579819595941878
aF0.38051580589794587
aF0.493149650081172
abag1
(g11
g3
Ntp37
Rp38
(lp39
F0.036774886231996096
aF-0.0614436551885218
aF-0.9974328473534937
abag1
(g11
g3
Ntp40
Rp41
(lp42
F-0.9974202746171015
aF-0.06382923112888841
aF-0.03284242738046589
abag1
(g11
g3
Ntp43
Rp44
(lp45
F-0.061647412965752005
aF0.9960675210499382
aF-0.06363246014465455
abag1
(g21
g3
Ntp46
Rp47
(lp48
F0.08289741724729538
abag1
(g21
g3
Ntp49
Rp50
(lp51
F104.1666259765625
abag1
(g7
g3
Ntp52
Rp53
(lp54
F0.10047353804111481
aF0.38376352190971375
aF0.4481878876686096
ababag1
(g2
g3
Ntp55
Rp56
(lp57
g1
(g7
g3
Ntp58
Rp59
(lp60
F0.35880011693878944
aF0.3374783684026637
aF0.4248644156343504
abag1
(g11
g3
Ntp61
Rp62
(lp63
F-0.5344599315816156
aF0.7465461766455034
aF-0.39625924300860926
abag1
(g11
g3
Ntp64
Rp65
(lp66
F-0.369033560558386
aF-0.6279095152763008
aF-0.6852327136142011
abag1
(g11
g3
Ntp67
Rp68
(lp69
F-0.7603728116623945
aF-0.21999646988409288
aF0.6110930702627569
abag1
(g21
g3
Ntp70
Rp71
(lp72
F0.04652586206793785
abag1
(g21
g3
Ntp73
Rp74
(lp75
F58.77947235107422
abag1
(g7
g3
Ntp76
Rp77
(lp78
F0.3554735481739044
aF0.3387635052204132
aF0.4211878776550293
ababag1
(g2
g3
Ntp79
Rp80
(lp81
g1
(g7
g3
Ntp82
Rp83
(lp84
F0.38423989216064447
aF0.4482360805305044
aF0.7173917021591536
abag1
(g11
g3
Ntp85
Rp86
(lp87
F-0.04338337569385672
aF0.5140424794372827
aF-0.8566669201313755
abag1
(g11
g3
Ntp88
Rp89
(lp90
F-0.0360798433619091
aF-0.857721018279212
aF-0.5128478328949552
abag1
(g11
g3
Ntp91
Rp92
(lp93
F-0.9984067946565596
aF0.008659338083407079
aF0.055757405315988905
abag1
(g21
g3
Ntp94
Rp95
(lp96
F0.08405321836471558
abag1
(g21
g3
Ntp97
Rp98
(lp99
F45.36274719238281
abag1
(g7
g3
Ntp100
Rp101
(lp102
F0.34347355365753174
aF0.4467635154724121
aF0.6731879115104675
ababag1
(g2
g3
Ntp103
Rp104
(lp105
g1
(g7
g3
Ntp106
Rp107
(lp108
F0.38423989216064447
aF0.4482360805305044
aF0.7173917021591536
abag1
(g11
g3
Ntp109
Rp110
(lp111
F0.036474574242622154
aF0.43530892588060854
aF-0.8995419637140283
abag1
(g11
g3
Ntp112
Rp113
(lp114
F0.03957372947009046
aF-0.9000640491919796
aF-0.4339569417441843
abag1
(g11
g3
Ntp115
Rp116
(lp117
F-0.998550712467648
aF-0.019769835629263387
aF-0.050056250654082854
abag1
(g21
g3
Ntp118
Rp119
(lp120
F0.0740809515118599
abag1
(g21
g3
Ntp121
Rp122
(lp123
F45.36274719238281
abag1
(g7
g3
Ntp124
Rp125
(lp126
F0.4274735450744629
aF0.4467635154724121
aF0.6881878972053528
ababag1
(g2
g3
Ntp127
Rp128
(lp129
g1
(g7
g3
Ntp130
Rp131
(lp132
F0.3585558851213218
aF0.3357284515763816
aF0.4239305435518659
abag1
(g11
g3
Ntp133
Rp134
(lp135
F-0.6349996213480307
aF0.44942816415670156
aF-0.6283230109987974
abag1
(g11
g3
Ntp136
Rp137
(lp138
F-0.13641359233039357
aF-0.8658036027305933
aF-0.4814306318944018
abag1
(g11
g3
Ntp139
Rp140
(lp141
F-0.7603728116623945
aF-0.21999646988409288
aF0.6110930702627569
abag1
(g21
g3
Ntp142
Rp143
(lp144
F0.040467746555805206
abag1
(g21
g3
Ntp145
Rp146
(lp147
F14.652473449707031
abag1
(g7
g3
Ntp148
Rp149
(lp150
F0.3554735481739044
aF0.3387635052204132
aF0.4211878776550293
ababag1
(g2
g3
Ntp151
Rp152
(lp153
g1
(g7
g3
Ntp154
Rp155
(lp156
F-0.03595078082082975
aF0.4176407236968132
aF0.23928371036056284
abag1
(g11
g3
Ntp157
Rp158
(lp159
F0.21997467815345445
aF0.9737541462103084
aF0.058429476375521
abag1
(g11
g3
Ntp160
Rp161
(lp162
F-0.9603508594294455
aF0.20565172034624868
aF0.18823813830293154
abag1
(g11
g3
Ntp163
Rp164
(lp165
F0.17128154531183262
aF-0.09752042174263684
aF0.9803838021809259
abag1
(g21
g3
Ntp166
Rp167
(lp168
F0.07391370087862015
abag1
(g21
g3
Ntp169
Rp170
(lp171
F9.43282699584961
abag1
(g7
g3
Ntp172
Rp173
(lp174
F-0.052526459097862244
aF0.45276352763175964
aF0.24418789148330688
ababag1
(g2
g3
Ntp175
Rp176
(lp177
g1
(g7
g3
Ntp178
Rp179
(lp180
F-0.03458339970149116
aF0.4182953592810463
aF0.23762447699096634
abag1
(g11
g3
Ntp181
Rp182
(lp183
F0.2345350746560988
aF0.953313066701561
aF0.19023011226439188
abag1
(g11
g3
Ntp184
Rp185
(lp186
F-0.9563759007121784
aF0.19121563133633174
aF0.22086583907344665
abag1
(g11
g3
Ntp187
Rp188
(lp189
F0.17417931936090394
aF-0.23373228101550927
aF0.956572415198274
abag1
(g21
g3
Ntp190
Rp191
(lp192
F0.07535436004400253
abag1
(g21
g3
Ntp193
Rp194
(lp195
F3.3750534057617188
abag1
(g7
g3
Ntp196
Rp197
(lp198
F-0.06152645871043205
aF0.4677635133266449
aF0.25618788599967957
ababa.