(lp0
ccopy_reg
_reconstructor
p1
(cgpd_ros.msg._GraspConfig
GraspConfig
p2
c__builtin__
object
p3
Ntp4
Rp5
(lp6
g1
(cgeometry_msgs.msg._Point
Point
p7
g3
Ntp8
Rp9
(lp10
F0.3048728356954212
aF0.32758948821908745
aF0.43181165485518125
abag1
(cgeometry_msgs.msg._Vector3
Vector3
p11
g3
Ntp12
Rp13
(lp14
F0.012411939641392563
aF0.44267213831883295
aF-0.8965976364627394
abag1
(g11
g3
Ntp15
Rp16
(lp17
F0.32699423244865566
aF-0.8491627559856698
aF-0.4147256753471339
abag1
(g11
g3
Ntp18
Rp19
(lp20
F-0.9449448215105752
aF-0.28803470590026786
aF-0.15529099296898455
abag1
(cstd_msgs.msg._Float32
Float32
p21
g3
Ntp22
Rp23
(lp24
F0.049675799906253815
abag1
(g21
g3
Ntp25
Rp26
(lp27
F217.16104125976562
abag1
(g7
g3
Ntp28
Rp29
(lp30
F0.3003266751766205
aF0.34176352620124817
aF0.4331849217414856
ababag1
(g2
g3
Ntp31
Rp32
(lp33
g1
(g7
g3
Ntp34
Rp35
(lp36
F0.26872252497777255
aF0.3271780966724678
aF0.4317690517845511
abag1
(g11
g3
Ntp37
Rp38
(lp39
F0.05969909000438375
aF0.4873445058944636
aF-0.8711666609938242
abag1
(g11
g3
Ntp40
Rp41
(lp42
F0.08808628958626434
aF-0.8718906192543432
aF-0.48171314456136843
abag1
(g11
g3
Ntp43
Rp44
(lp45
F-0.9943222939467729
aF-0.047980002404737196
aF-0.09497944582733758
abag1
(g21
g3
Ntp46
Rp47
(lp48
F0.03904948756098747
abag1
(g21
g3
Ntp49
Rp50
(lp51
F105.60578155517578
abag1
(g7
g3
Ntp52
Rp53
(lp54
F0.2703266739845276
aF0.3267635107040405
aF0.41518494486808777
ababag1
(g2
g3
Ntp55
Rp56
(lp57
g1
(g7
g3
Ntp58
Rp59
(lp60
F0.2889474769160297
aF0.32953104168765934
aF0.4312164211747635
abag1
(g11
g3
Ntp61
Rp62
(lp63
F-0.03162130123439138
aF0.912273485767151
aF-0.40835913173883526
abag1
(g11
g3
Ntp64
Rp65
(lp66
F-0.21616421035402136
aF-0.405135993040365
aF-0.8883343184326604
abag1
(g11
g3
Ntp67
Rp68
(lp69
F-0.9758448275572639
aF0.06018234217317213
aF0.21001180495459051
abag1
(g21
g3
Ntp70
Rp71
(lp72
F0.044460415840148926
abag1
(g21
g3
Ntp73
Rp74
(lp75
F-74.39984893798828
abag1
(g7
g3
Ntp76
Rp77
(lp78
F0.28532665967941284
aF0.3267635107040405
aF0.41518494486808777
ababag1
(g2
g3
Ntp79
Rp80
(lp81
g1
(g7
g3
Ntp82
Rp83
(lp84
F0.2889474769160297
aF0.32953104168765934
aF0.4312164211747635
abag1
(g11
g3
Ntp85
Rp86
(lp87
F-0.1752108155239445
aF0.35860036010105384
aF-0.9169007317364452
abag1
(g11
g3
Ntp88
Rp89
(lp90
F-0.13049154245838313
aF-0.9315491760642298
aF-0.3393937093124829
abag1
(g11
g3
Ntp91
Rp92
(lp93
F-0.9758448275572639
aF0.06018234217317213
aF0.21001180495459051
abag1
(g21
g3
Ntp94
Rp95
(lp96
F0.039018165320158005
abag1
(g21
g3
Ntp97
Rp98
(lp99
F-74.39984893798828
abag1
(g7
g3
Ntp100
Rp101
(lp102
F0.28532665967941284
aF0.3267635107040405
aF0.41518494486808777
ababag1
(g2
g3
Ntp103
Rp104
(lp105
g1
(g7
g3
Ntp106
Rp107
(lp108
F0.2688781144739997
aF0.32638076051560966
aF0.4305429979466414
abag1
(g11
g3
Ntp109
Rp110
(lp111
F0.039125413815104745
aF0.9583326525408342
aF-0.28296241635214653
abag1
(g11
g3
Ntp112
Rp113
(lp114
F-0.03113368117887924
aF0.28421090914266783
aF0.9582561520911567
abag1
(g11
g3
Ntp115
Rp116
(lp117
F0.998749165651741
aF-0.028682506835123443
aF0.04095629269849001
abag1
(g21
g3
Ntp118
Rp119
(lp120
F0.039040569216012955
abag1
(g21
g3
Ntp121
Rp122
(lp123
F-182.90170288085938
abag1
(g7
g3
Ntp124
Rp125
(lp126
F0.22532667219638824
aF0.3267635107040405
aF0.41518494486808777
ababag1
(g2
g3
Ntp127
Rp128
(lp129
g1
(g7
g3
Ntp130
Rp131
(lp132
F0.28903083240101113
aF0.33070455874956206
aF0.43126745170375913
abag1
(g11
g3
Ntp133
Rp134
(lp135
F-0.11193673497459425
aF0.6877919691616714
aF-0.7172254697931032
abag1
(g11
g3
Ntp136
Rp137
(lp138
F-0.18760874151531737
aF-0.7234088006426667
aF-0.6644416206558534
abag1
(g11
g3
Ntp139
Rp140
(lp141
F-0.9758448275572639
aF0.06018234217317213
aF0.21001180495459051
abag1
(g21
g3
Ntp142
Rp143
(lp144
F0.04144386574625969
abag1
(g21
g3
Ntp145
Rp146
(lp147
F-185.77696228027344
abag1
(g7
g3
Ntp148
Rp149
(lp150
F0.28532665967941284
aF0.3267635107040405
aF0.41518494486808777
ababag1
(g2
g3
Ntp151
Rp152
(lp153
g1
(g7
g3
Ntp154
Rp155
(lp156
F0.25402517435999156
aF0.32726390738763667
aF0.4304130927826169
abag1
(g11
g3
Ntp157
Rp158
(lp159
F0.021445603721422395
aF0.7839057091008966
aF-0.6205094079222679
abag1
(g11
g3
Ntp160
Rp161
(lp162
F0.10422697271556171
aF-0.6190232294577169
aF-0.7784259627930501
abag1
(g11
g3
Ntp163
Rp164
(lp165
F-0.9943222939467729
aF-0.047980002404737196
aF-0.09497944582733758
abag1
(g21
g3
Ntp166
Rp167
(lp168
F0.042605236172676086
abag1
(g21
g3
Ntp169
Rp170
(lp171
F-246.55101013183594
abag1
(g7
g3
Ntp172
Rp173
(lp174
F0.2703266739845276
aF0.3267635107040405
aF0.41518494486808777
ababag1
(g2
g3
Ntp175
Rp176
(lp177
g1
(g7
g3
Ntp178
Rp179
(lp180
F0.2467538201571044
aF0.32615392155213907
aF0.4295080496565951
abag1
(g11
g3
Ntp181
Rp182
(lp183
F-0.020072781323243687
aF0.9611243742196668
aF-0.27538522242633606
abag1
(g11
g3
Ntp184
Rp185
(lp186
F0.10450004406877526
aF-0.27191516443570174
aF-0.9566304846384146
abag1
(g11
g3
Ntp187
Rp188
(lp189
F-0.9943222939467729
aF-0.047980002404737196
aF-0.09497944582733758
abag1
(g21
g3
Ntp190
Rp191
(lp192
F0.042781658470630646
abag1
(g21
g3
Ntp193
Rp194
(lp195
F-359.67132568359375
abag1
(g7
g3
Ntp196
Rp197
(lp198
F0.2703266739845276
aF0.3267635107040405
aF0.41518494486808777
ababag1
(g2
g3
Ntp199
Rp200
(lp201
g1
(g7
g3
Ntp202
Rp203
(lp204
F0.20195204942323142
aF0.3213902495989526
aF0.41283356270022176
abag1
(g11
g3
Ntp205
Rp206
(lp207
F-0.1301538516923221
aF0.9813801129252906
aF-0.14125526129811028
abag1
(g11
g3
Ntp208
Rp209
(lp210
F0.14839257574105702
aF-0.12158159706461347
aF-0.9814262879708049
abag1
(g11
g3
Ntp211
Rp212
(lp213
F-0.9803262815790404
aF-0.14869764359250084
aF-0.12980520958516997
abag1
(g21
g3
Ntp214
Rp215
(lp216
F0.06212114542722702
abag1
(g21
g3
Ntp217
Rp218
(lp219
F-362.6744079589844
abag1
(g7
g3
Ntp220
Rp221
(lp222
F0.19832666218280792
aF0.33276352286338806
aF0.42718493938446045
ababag1
(g2
g3
Ntp223
Rp224
(lp225
g1
(g7
g3
Ntp226
Rp227
(lp228
F0.303897884727843
aF0.3301150237764799
aF0.4330598468643867
abag1
(g11
g3
Ntp229
Rp230
(lp231
F-0.11366813824359151
aF0.7339362463029704
aF-0.6696395602941492
abag1
(g11
g3
Ntp232
Rp233
(lp234
F0.30685312227282746
aF-0.6151207967217918
aF-0.7262696240321258
abag1
(g11
g3
Ntp235
Rp236
(lp237
F-0.9449448215105752
aF-0.28803470590026786
aF-0.15529099296898455
abag1
(g21
g3
Ntp238
Rp239
(lp240
F0.050363630056381226
abag1
(g21
g3
Ntp241
Rp242
(lp243
F-372.45599365234375
abag1
(g7
g3
Ntp244
Rp245
(lp246
F0.3003266751766205
aF0.34176352620124817
aF0.4331849217414856
ababag1
(g2
g3
Ntp247
Rp248
(lp249
g1
(g7
g3
Ntp250
Rp251
(lp252
F0.23260875998550934
aF0.32198806981234857
aF0.41346050774194465
abag1
(g11
g3
Ntp253
Rp254
(lp255
F0.02423282504911571
aF0.9941467292460462
aF0.10528556842952208
abag1
(g11
g3
Ntp256
Rp257
(lp258
F-0.04373641846436718
aF-0.10416138694853166
aF0.9935982745400014
abag1
(g11
g3
Ntp259
Rp260
(lp261
F0.998749165651741
aF-0.028682506835123443
aF0.04095629269849001
abag1
(g21
g3
Ntp262
Rp263
(lp264
F0.03642556816339493
abag1
(g21
g3
Ntp265
Rp266
(lp267
F-411.0568542480469
abag1
(g7
g3
Ntp268
Rp269
(lp270
F0.22532667219638824
aF0.3267635107040405
aF0.41518494486808777
ababag1
(g2
g3
Ntp271
Rp272
(lp273
g1
(g7
g3
Ntp274
Rp275
(lp276
F0.24221699267332986
aF0.3206189340277141
aF0.41336239774664757
abag1
(g11
g3
Ntp277
Rp278
(lp279
F0.0056510083405049046
aF0.8786109783860896
aF0.4775047798338504
abag1
(g11
g3
Ntp280
Rp281
(lp282
F-0.04968068251027589
aF-0.47667605610214114
aF0.8776740666809186
abag1
(g11
g3
Ntp283
Rp284
(lp285
F0.998749165651741
aF-0.028682506835123443
aF0.04095629269849001
abag1
(g21
g3
Ntp286
Rp287
(lp288
F0.03234146162867546
abag1
(g21
g3
Ntp289
Rp290
(lp291
F-443.90118408203125
abag1
(g7
g3
Ntp292
Rp293
(lp294
F0.22532667219638824
aF0.3267635107040405
aF0.41518494486808777
ababag1
(g2
g3
Ntp295
Rp296
(lp297
g1
(g7
g3
Ntp298
Rp299
(lp300
F0.22530386100234456
aF0.32240430390332164
aF0.4126883732523066
abag1
(g11
g3
Ntp301
Rp302
(lp303
F-0.058535267371661724
aF0.992020565977641
aF0.11166386681074775
abag1
(g11
g3
Ntp304
Rp305
(lp306
F0.08886393100777619
aF0.11658951945454527
aF-0.9891966870745181
abag1
(g11
g3
Ntp307
Rp308
(lp309
F-0.9943222939467729
aF-0.047980002404737196
aF-0.09497944582733758
abag1
(g21
g3
Ntp310
Rp311
(lp312
F0.038062553852796555
abag1
(g21
g3
Ntp313
Rp314
(lp315
F-520.8497314453125
abag1
(g7
g3
Ntp316
Rp317
(lp318
F0.2703266739845276
aF0.3267635107040405
aF0.41518494486808777
ababag1
(g2
g3
Ntp319
Rp320
(lp321
g1
(g7
g3
Ntp322
Rp323
(lp324
F0.21729490970051438
aF0.32213580763557575
aF0.4143565006563486
abag1
(g11
g3
Ntp325
Rp326
(lp327
F-0.17703385987813017
aF0.9532042628224069
aF0.24507273572113886
abag1
(g11
g3
Ntp328
Rp329
(lp330
F0.0872891408026388
aF0.26323116101105887
aF-0.9607757083579431
abag1
(g11
g3
Ntp331
Rp332
(lp333
F-0.9803262815790404
aF-0.14869764359250084
aF-0.12980520958516997
abag1
(g21
g3
Ntp334
Rp335
(lp336
F0.05794396623969078
abag1
(g21
g3
Ntp337
Rp338
(lp339
F-533.0642700195312
abag1
(g7
g3
Ntp340
Rp341
(lp342
F0.19832666218280792
aF0.33276352286338806
aF0.42718493938446045
ababa.