(lp0
(lp1
F-0.07486306901786882
aF0.4273989598786111
aF0.6280811055860824
aa(lp2
F-0.07375501957872725
aF0.4291269174371695
aF0.6420556772221788
aa(lp3
F0.10514993266796695
aF0.6420897459670154
aF0.4547370200942494
aa(lp4
F0.36034551854994945
aF0.44091852799676884
aF0.7022588581967226
aa(lp5
F0.25876147867730537
aF0.5467873542549604
aF0.6880600905717188
aa(lp6
F0.2626880612990393
aF0.31905587432315263
aF0.4171650048604215
aa(lp7
F0.2546922365460485
aF0.3298332667133503
aF0.4324147566052972
aa(lp8
F0.2546922365460485
aF0.3298332667133503
aF0.4324147566052972
aa(lp9
F0.16405903721644938
aF0.4408684756375689
aF0.7015075559757825
aa(lp10
F0.2660544410382317
aF0.5482075967796337
aF0.6880605584057721
aa(lp11
F0.10627748533388644
aF0.6420898126934944
aF0.4547955073999965
aa(lp12
F0.3321603225319974
aF0.4394313284852807
aF0.7034608211829562
aa(lp13
F0.2390610738174252
aF0.33042674995589416
aF0.4356882540746588
aa(lp14
F-0.02926586814488252
aF0.40941839036410893
aF0.5810599909428906
aa(lp15
F0.31172854238601855
aF0.3339689937782047
aF0.43719009216390514
aa(lp16
F0.25886307824156046
aF0.3426639263843749
aF0.44332385048063455
aa(lp17
F0.25782996473954445
aF0.34743984644900017
aF0.443322533934062
aa(lp18
F0.27215125382710864
aF0.3315696882986978
aF0.438646693594549
aa(lp19
F0.27215125382710864
aF0.3315696882986978
aF0.438646693594549
aa(lp20
F0.27215125382710864
aF0.3315696882986978
aF0.438646693594549
aa(lp21
F0.1316620470632693
aF0.45222422682688235
aF0.1997563518365404
aa(lp22
F0.31488778623340385
aF0.3315539957719229
aF0.43747576433966495
aa(lp23
F0.34740908994230885
aF0.4181329808345848
aF0.6972635005918232
aa(lp24
F0.3691379726839244
aF0.41743563032583203
aF0.6981287975504488
aa(lp25
F0.28960485944208936
aF0.33269811958501516
aF0.437418429051805
aa(lp26
F0.2530383450656139
aF0.3335269223096742
aF0.44046807140426264
aa(lp27
F0.39672727351504217
aF0.4511889138448596
aF0.7198464595981587
aa(lp28
F0.41899180499514216
aF0.42599380351118393
aF0.6985399004934404
aa(lp29
F0.3235415454994603
aF0.4502079266879585
aF0.7162173206621335
aa(lp30
F0.17313083880885602
aF0.5345436387989102
aF0.6998772464857013
aa(lp31
F0.4412589132057282
aF0.4504729208589468
aF0.7295256611676686
aa(lp32
F0.45247340645820583
aF0.45022745310612966
aF0.7295147743178045
aa(lp33
F0.44623852112214984
aF0.42700061612021767
aF0.7006692589813046
aa(lp34
F0.1974612147647616
aF0.32197399639403
aF0.4151514471445175
aa(lp35
F-0.095367419464977
aF0.4583759335657435
aF0.5345737526017365
aa(lp36
F-0.07210281074897734
aF0.6018151360205314
aF0.42085815479383476
aa(lp37
F-0.07087247451131105
aF0.604486256529214
aF0.4207946553633547
aa(lp38
F0.19750303186361406
aF0.32236407313213505
aF0.4131918383532927
aa(lp39
F0.13122283810888477
aF0.44087046295262067
aF0.7175507298471201
aa(lp40
F0.326657090488968
aF0.326678354306517
aF0.43381645759447873
aa(lp41
F0.29783961210691073
aF0.3298271677707838
aF0.4344189302213445
aa(lp42
F0.4467708538918314
aF0.5522342264283499
aF0.6892720232097507
aa(lp43
F0.1768035471882708
aF0.4365756621488907
aF0.7190299777318488
aa(lp44
F-0.09399588055733368
aF0.4567621155460496
aF0.526911884702833
aa(lp45
F0.438041411770341
aF0.5504522044646419
aF0.6890416296360151
aa(lp46
F0.31038717303117397
aF0.33012803185908046
aF0.4341971356238582
aa(lp47
F0.31852365795880316
aF0.3270198933200964
aF0.4319784442125592
aa(lp48
F0.4763230253380165
aF0.4294815261953531
aF0.6926105258052693
aa(lp49
F0.41597993305297515
aF0.49517736463698986
aF0.6901015943069887
aa(lp50
F0.38614580683060346
aF0.49654646813604514
aF0.6931423119596969
aa(lp51
F-0.02187564989651672
aF0.4395963253752853
aF0.3358761327380997
aa(lp52
F0.3059067102807778
aF0.32334086935500883
aF0.4306922979133813
aa(lp53
F0.42009680516357323
aF0.44856330591770593
aF0.7175020086426259
aa(lp54
F0.42765057408207924
aF0.43085588006927067
aF0.6908865526714375
aa(lp55
F-0.023192895507576083
aF0.44109170092482786
aF0.3191256712663407
aa(lp56
F0.44687876416744
aF0.446801034805462
aF0.7206887647922963
aa(lp57
F-0.04775204943336114
aF0.6092315040676044
aF0.45905337069284025
aa(lp58
F-0.04411735511068156
aF0.6061544481578002
aF0.4593491078685045
aa(lp59
F0.4468700059900505
aF0.26493579581343796
aF0.8363856698273235
aa(lp60
F-0.044975405697007025
aF0.3510935169236012
aF0.68625795703933
aa(lp61
F0.44584985425935486
aF0.26342533566040044
aF0.8355660505751965
aa(lp62
F-0.04469643949884822
aF0.35109386914029467
aF0.6849431478040904
aa(lp63
F-0.0435851893817625
aF0.35109362467409716
aF0.6856306523197251
aa(lp64
F-0.044072437860872116
aF0.35109377435913264
aF0.6851763793693711
aa(lp65
F0.432185078590574
aF0.4969465448353532
aF0.6932797677278324
aa(lp66
F0.4587553160385758
aF0.49739131304887363
aF0.692580713630281
aa(lp67
F0.1627135961932063
aF0.40773662844426684
aF0.4724644455823679
aa(lp68
F0.4316779862703425
aF0.41516190224002797
aF0.6756802519849001
aa(lp69
F-0.052491633695757614
aF0.41748332898430845
aF0.5216360503899304
aa(lp70
F0.16028355599941613
aF0.3787202157664477
aF0.47431482693856497
aa(lp71
F-0.05732008407454165
aF0.41775108592815047
aF0.4858629503650212
aa(lp72
F0.15045068792600919
aF0.3176810207887574
aF0.45984519077250074
aa(lp73
F0.18619120693391195
aF0.38688463299253995
aF0.44027721138852444
aa(lp74
F0.18619120693391195
aF0.38688463299253995
aF0.44027721138852444
aa(lp75
F0.4585989295151576
aF0.4153669202751864
aF0.6761276775938762
aa(lp76
F0.18622772474629806
aF0.40034797357863067
aF0.441500593077054
aa(lp77
F0.2579771879027631
aF0.38701312121648584
aF0.7789189094938831
aa(lp78
F0.23655436055485443
aF0.3252243688080465
aF0.43159117483589704
aa(lp79
F0.2355856248727641
aF0.32867488184632215
aF0.43491265773604393
aa(lp80
F0.2591060338180331
aF0.3834769957294638
aF0.7775774452726417
aa(lp81
F0.44030959798421837
aF0.43002870880043587
aF0.6951673770345967
aa(lp82
F0.44030959798421837
aF0.43002870880043587
aF0.6951673770345967
aa(lp83
F0.4583363329614228
aF0.49763807844372293
aF0.6933826655201851
aa(lp84
F0.46438777592263764
aF0.4188216319019611
aF0.6823511965469562
aa(lp85
F0.08839376614636019
aF0.3938257614071826
aF0.4814194584294042
aa(lp86
F0.0864025282881141
aF0.3929396578947321
aF0.43184715542629776
aa(lp87
F-0.09872685647964909
aF0.4588553016131744
aF0.5000592876740333
aa(lp88
F-0.07375295671886377
aF0.4793929388736961
aF0.3762240888439231
aa(lp89
F0.42596420861243933
aF0.49587880830263475
aF0.6964750060985427
aa(lp90
F-0.10030677720900792
aF0.4550112584465661
aF0.5157876092911629
aa(lp91
F0.3326747903203382
aF0.43932066687869986
aF0.7029396874154868
aa(lp92
F0.47489612209645576
aF0.41766664816651433
aF0.6855967459096176
aa(lp93
F0.21269715940169184
aF0.32593933212105586
aF0.4315044873197554
aa(lp94
F0.255262145400781
aF0.3395131942236359
aF0.4523142387778
aa(lp95
F0.08719904675827561
aF0.3624569072488002
aF0.4805635176362523
aa(lp96
F-0.08563624585055182
aF0.4361875699481763
aF0.5653994271398199
aa(lp97
F0.4268780242725011
aF0.4262903617297352
aF0.6956371576809266
aa(lp98
F0.08666174367903308
aF0.37056915335156954
aF0.4316138884114683
aa(lp99
F0.21244836720161064
aF0.3273881479671277
aF0.4328583744019608
aa(lp100
F0.17440260800443683
aF0.4617003549276391
aF0.723838320913846
aa(lp101
F0.2582621365792936
aF0.3395131942236359
aF0.4523142387778
aa(lp102
F-0.042341212804133915
aF0.4129212975456554
aF0.5110613423250748
aa(lp103
F0.08786947170065
aF0.40669667350072675
aF0.47030123540474866
aa(lp104
F0.10528418305413056
aF0.3926452215507326
aF0.4896442551059028
aa(lp105
F0.09194930734006157
aF0.39290802449816326
aF0.4677432875536085
aa(lp106
F0.10170819633948183
aF0.6418048728824407
aF0.4564292907384299
aa(lp107
F-0.07650256398613416
aF0.49029535533943663
aF0.5537969521654745
aa(lp108
F-0.04330734442578557
aF0.410007118059667
aF0.548832532374402
aa(lp109
F-0.07553873721042967
aF0.49179104080976066
aF0.5559562883821871
aa(lp110
F0.1022038617620562
aF0.38613482629899165
aF0.48923651392890505
aa(lp111
F0.2532945759979826
aF0.3302400920798074
aF0.4346959194006789
aa(lp112
F0.10354933082470594
aF0.6417517589593706
aF0.45720477630535394
aa(lp113
F0.2874727538850158
aF0.329133077607286
aF0.4351131908701399
aa(lp114
F0.2623235765441239
aF0.33088105282351155
aF0.43696944248150543
aa(lp115
F-0.040663521049658674
aF0.4114600781506011
aF0.5078891057265764
aa(lp116
F0.12360289268527531
aF0.3950463334532941
aF0.4994482524134982
aa(lp117
F0.4015827616365372
aF0.5430945690878005
aF0.6880166739826822
aa(lp118
F0.47467025536395224
aF0.43005060960191976
aF0.6955109763858399
aa(lp119
F0.2952193116781477
aF0.33006613998764145
aF0.43985884338358694
aa(lp120
F0.38080901054538663
aF0.44491880200309664
aF0.7016827279101291
aa(lp121
F0.4010499517578338
aF0.5460913955477835
aF0.6880155137182594
aa(lp122
F0.1251566855231972
aF0.4033998921518159
aF0.5027712727668016
aa(lp123
F-0.07035948408591296
aF0.6133282399287064
aF0.4206500725818721
aa(lp124
F0.2541099953106074
aF0.3308921834958038
aF0.4395056766137769
aa(lp125
F-0.025791080293505513
aF0.438127636944208
aF0.32227883156125925
aa(lp126
F0.4646113635760098
aF0.4308967170071496
aF0.6986896454507666
aa(lp127
F-0.027522413721868436
aF0.43688722318383644
aF0.34430847132966935
aa(lp128
F0.1426040502999616
aF0.4031223433042527
aF0.49975671853037457
aa(lp129
F0.22441364769649205
aF0.3372454555258756
aF0.4396791586444904
aa(lp130
F-0.06873795003654305
aF0.61417401409521
aF0.41919322656555524
aa(lp131
F0.24571308048424914
aF0.33703094757241053
aF0.438489251312413
aa(lp132
F0.2957364439051076
aF0.327514688554459
aF0.43840642733553803
aa(lp133
F-0.07445914530414839
aF0.42732091875924405
aF0.5446448667743454
aa(lp134
F-0.07145247435476468
aF0.42482374985989785
aF0.5633489444549258
aa(lp135
F0.43026621395754444
aF0.5470661271259492
aF0.6872686729239772
aa(lp136
F0.2420863441773929
aF0.41776214831868275
aF0.6798557565467643
aa(lp137
F-0.07570867697757569
aF0.4896656945543673
aF0.5040485675247628
aa(lp138
F0.28931852943521713
aF0.3331929027844886
aF0.44090692963129335
aa(lp139
F0.23266640506389732
aF0.42566586218710195
aF0.6923728471436793
aa(lp140
F-0.07964687422577263
aF0.49019573589971865
aF0.5272736303204406
aa(lp141
F0.28004118017034346
aF0.4182143743017207
aF0.683591130588551
aa(lp142
F-0.0772842394969413
aF0.44430156254606124
aF0.5260802818262061
aa(lp143
F-0.08052426566213729
aF0.4413953224965563
aF0.5444604388402885
aa(lp144
F0.30572474039088987
aF0.3339108514221193
aF0.44118793344657004
aa(lp145
F-0.13139022460686872
aF0.6120961729520029
aF0.6564506723722104
aa(lp146
F0.3078417419701385
aF0.3284617281788297
aF0.4412083827705943
aa(lp147
F-0.1336101303140314
aF0.6120958687536571
aF0.6558975024459521
aa(lp148
F0.2985842228582562
aF0.3292229234278091
aF0.43921507815403227
aa(lp149
F-0.13301278756251256
aF0.6120954282435022
aF0.655096456111673
aa(lp150
F0.19636613297868008
aF0.4096416111874216
aF0.4760384020714551
aa(lp151
F-0.07779570209850552
aF0.4310200489295846
aF0.6457144293972149
aa(lp152
F-0.09833541095454675
aF0.45983603711294163
aF0.5425172787365495
aa(lp153
F0.2624761569328961
aF0.42878033050376047
aF0.697871104941036
aa(lp154
F0.19957756980565938
aF0.4031428112655039
aF0.4761922011499774
aa(lp155
F-0.07360579492624067
aF0.4290040521945515
aF0.6407041851757562
aa(lp156
F-0.09853576339896668
aF0.4601661014119841
aF0.5243880119491008
aa(lp157
F-0.09853576339896668
aF0.4601661014119841
aF0.5243880119491008
aa(lp158
F0.23833479360827273
aF0.42877593478532083
aF0.6978907096327267
aa(lp159
F-0.026146110435401958
aF0.43629653009055624
aF0.24670661632983923
aa(lp160
F0.38669117927556607
aF0.5420039399124847
aF0.703009866931981
aa(lp161
F0.38669117927556607
aF0.5420039399124847
aF0.703009866931981
aa(lp162
F0.3892410755979234
aF0.5414564742702477
aF0.700491555020267
aa(lp163
F-0.09566798937326541
aF0.4566756068677125
aF0.5349539448138767
aa(lp164
F-0.021821786771305356
aF0.43947274609602155
aF0.3363196111138541
aa(lp165
F-0.075410184227168
aF0.5013542974720601
aF0.5191791636923524
aa(lp166
F-0.07872962109710814
aF0.4346735866089552
aF0.5349220202819486
aa(lp167
F0.3559936725091628
aF0.5087317181365476
aF0.7128026557132339
aa(lp168
F-0.07602601102705409
aF0.4998184448915234
aF0.7225734836690523
aa(lp169
F0.35677255146472897
aF0.4368822399220588
aF0.7060120854126573
aa(lp170
F0.2967493742778719
aF0.3210630165778425
aF0.43075260091897233
aa(lp171
F0.2967493742778719
aF0.3210630165778425
aF0.43075260091897233
aa(lp172
F-0.07590847174844527
aF0.503565849831544
aF0.5689131070331389
aa(lp173
F-0.07831326255844058
aF0.4311471993030622
aF0.5135955070803161
aa(lp174
F0.257948138295477
aF0.32415304588255667
aF0.4277531171247467
aa(lp175
F0.33546749703667633
aF0.5123360266126431
aF0.7100410715673696
aa(lp176
F-0.07662003188877536
aF0.4864560863804943
aF0.7222759908276002
aa(lp177
F0.2593178847435077
aF0.3196109405835636
aF0.427446075347282
aa(lp178
F0.3836619538610236
aF0.43649337434769664
aF0.7051740901174104
aa(lp179
F-0.09609017178313123
aF0.46173009934815956
aF0.5509198863614636
aa(lp180
F0.29546660604089525
aF0.321809437037091
aF0.43036028187765984
aa(lp181
F-0.06581960937266139
aF0.4630183745263458
aF0.3419338896478045
aa(lp182
F0.1970376307168265
aF0.32565516722229887
aF0.4302902457603559
aa(lp183
F-0.06791760247953135
aF0.4661906434402585
aF0.33765923571373835
aa(lp184
F0.3210023621086547
aF0.3297978792965671
aF0.44589153207360754
aa(lp185
F0.3070925144726078
aF0.3291207857951214
aF0.4453614913825327
aa(lp186
F0.30201187013908315
aF0.3307631972353293
aF0.4401007085983429
aa(lp187
F0.46588300466328364
aF0.43135429780682766
aF0.6878943717862995
aa(lp188
F0.46140705884017297
aF0.43098114936080006
aF0.6883188435493172
aa(lp189
F0.3220835464785027
aF0.32791510828838005
aF0.44390687646206745
aa(lp190
F0.4719667741756993
aF0.4313248386366566
aF0.6878557104772356
aa(lp191
F0.4450846563877367
aF0.263418248169419
aF0.8347761072868656
aa(lp192
F0.44584549179633093
aF0.2649435872578573
aF0.8358193931021262
aa(lp193
F0.19709913932645784
aF0.32492403830932115
aF0.4274008669800246
aa(lp194
F0.46160094393973794
aF0.4262126432947412
aF0.6857407162984664
aa(lp195
F0.44024230941262565
aF0.424804899092234
aF0.6849554315005532
aa(lp196
F0.4402934237407335
aF0.4374692578725913
aF0.7085090064083855
aa(lp197
F0.32542557519930193
aF0.3447127031572469
aF0.44897500340822705
aa(lp198
F-0.0822939883704672
aF0.4311187915814353
aF0.5208189432849459
aa(lp199
F-0.019974410200237575
aF0.44111709848505876
aF0.3050349999266422
aa(lp200
F0.44048681018730684
aF0.4533670870947897
aF0.7218985157768107
aa(lp201
F-0.07963604740612995
aF0.49018656045470926
aF0.5281772250870456
aa(lp202
F0.29581618022125583
aF0.3344405832723219
aF0.4498375843476866
aa(lp203
F0.42057325788675726
aF0.43901894520768514
aF0.7092568982850131
aa(lp204
F0.3256553292561739
aF0.3476409751594993
aF0.4488166356038407
aa(lp205
F0.3986243534006822
aF0.45363067465648416
aF0.7176889642816638
aa(lp206
F0.4260895922719243
aF0.43817006360967514
aF0.7088150683779832
aa(lp207
F-0.019163526610051752
aF0.4377640672154173
aF0.2554243411738447
aa(lp208
F-0.07925644717767458
aF0.4885945175815307
aF0.5249295927386922
aa(lp209
F0.43477708935556647
aF0.43831813947060133
aF0.7089508363154156
aa(lp210
F0.39674505551708517
aF0.4347912539904555
aF0.697163270199838
aa(lp211
F0.2445933735924245
aF0.3359829839015927
aF0.44003133613292306
aa(lp212
F0.25903069109835414
aF0.33161157021417986
aF0.44524955179546627
aa(lp213
F-0.07752794581457755
aF0.4877059146639404
aF0.500628234255873
aa(lp214
F-0.01923967999437363
aF0.4087538306205801
aF0.49049450206477224
aa(lp215
F0.2952837732504057
aF0.3292559143545653
aF0.4443560434676015
aa(lp216
F-0.02301627783943119
aF0.40834192213408416
aF0.4817094099252133
aa(lp217
F0.24217666890011325
aF0.322683314479843
aF0.4321113072703425
aa(lp218
F0.2982837942312407
aF0.32625592317605273
aF0.43835606111057634
aa(lp219
F0.4418352205444329
aF0.42828516368951053
aF0.697816062656271
aa(lp220
F0.4525143407584945
aF0.4321201404858409
aF0.6975505181409485
aa(lp221
F0.4525143407584945
aF0.4321201404858409
aF0.6975505181409485
aa(lp222
F0.3494510390499604
aF0.44051912589097836
aF0.7082474158901143
aa(lp223
F0.2157060711402154
aF0.5774104754620851
aF0.7620072707439043
aa(lp224
F0.2422229026215051
aF0.32108691772991094
aF0.4296410797368746
aa(lp225
F0.2147310650643877
aF0.5779492510700011
aF0.7623890803073735
aa(lp226
F0.2147310650643877
aF0.5779492510700011
aF0.7623890803073735
aa(lp227
F0.41507133420766945
aF0.4075882526043784
aF0.8225899327031978
aa(lp228
F0.2984789457267359
aF0.3244090170410109
aF0.4360749434394683
aa(lp229
F0.29771243524255464
aF0.32847951261195435
aF0.44544080004238046
aa(lp230
F0.3744133818462707
aF0.4435781477324728
aF0.7076798728451104
aa(lp231
F0.41592754842417634
aF0.40831191750331325
aF0.8224557607489406
aa(lp232
F0.4527294581378882
aF0.4321982635126938
aF0.6975903303050539
aa(lp233
F-0.0945852280254972
aF0.44986786088814135
aF0.5287344834914621
aa(lp234
F-0.09458623333981134
aF0.4494033503732587
aF0.5230812152205141
aa(lp235
F-0.06787194555148245
aF0.6017054236374091
aF0.42260763131112
aa(lp236
F0.3247717870763055
aF0.3445924793420144
aF0.4509989365556697
aa(lp237
F-0.08015821159485728
aF0.43811111662988805
aF0.638020441284832
aa(lp238
F-0.07639642419069723
aF0.4288782523074395
aF0.5244975479022476
aa(lp239
F-0.07723858652793762
aF0.4293158438037452
aF0.5096532276410873
aa(lp240
F-0.07649100485695601
aF0.4290270774110146
aF0.5274672685229941
aa(lp241
F0.31760326472289335
aF0.3324746653547165
aF0.4469491972843581
aa(lp242
F-0.07181046135733118
aF0.514436166449697
aF0.48391907961708086
aa(lp243
F-0.08222283552953134
aF0.4401513217501458
aF0.6085896329522377
aa(lp244
F-0.06649847542048333
aF0.6043059911735325
aF0.4225504255718516
aa(lp245
F0.324895829368337
aF0.3475300184157157
aF0.4509088149292047
aa(lp246
F0.3238588447887134
aF0.3308924075533675
aF0.4472987812130549
aa(lp247
F0.3238588447887134
aF0.3308924075533675
aF0.4472987812130549
aa(lp248
F0.41275897136837
aF0.4317975001097717
aF0.6962305818712528
aa(lp249
F-0.02187635084287952
aF0.4395967714051488
aF0.33583932331824584
aa(lp250
F-0.01764426014564556
aF0.4377861743919957
aF0.3773080312246377
aa(lp251
F-0.01764426014564556
aF0.4377861743919957
aF0.3773080312246377
aa(lp252
F0.46455853817236564
aF0.41606515513902365
aF0.6833264049211484
aa(lp253
F0.4587519338072746
aF0.415595305649837
aF0.6807057658308747
aa(lp254
F0.464543641829372
aF0.43117703823149667
aF0.7054381721394604
aa(lp255
F0.06727926203974191
aF0.5416142733174061
aF0.6927343243173668
aa(lp256
F0.428348424637066
aF0.4271160761224303
aF0.6989774822585074
aa(lp257
F0.3262807395372958
aF0.43973198750573317
aF0.7092526816892505
aa(lp258
F0.45850252078735776
aF0.42989818027358184
aF0.7033357699305451
aa(lp259
F0.4252747832630323
aF0.42589279024494586
aF0.7003479549866142
aa(lp260
F0.4449092125462022
aF0.42853491423822127
aF0.7028930635630373
aa(lp261
F0.24433874473447215
aF0.4097255635575462
aF0.20991190813537675
aa(lp262
F-0.07894672251448902
aF0.48691982528240435
aF0.5174695149313386
aa(lp263
F0.19175640393520743
aF0.4918787552409686
aF0.6924407039128405
aa(lp264
F0.1858439079237663
aF0.49261684125279465
aF0.6924080541578868
aa(lp265
F-0.06600149858781759
aF0.5235168265224335
aF0.565456603436395
aa(lp266
F0.24409581684284462
aF0.33215956972713173
aF0.4456800364768709
aa(lp267
F0.3964326528160156
aF0.44330516492122546
aF0.707445141335087
aa(lp268
F0.24323654772081238
aF0.33671239940097825
aF0.4472324978264374
aa(lp269
F0.39829945869464456
aF0.42218829838713695
aF0.6962068862507997
aa(lp270
F-0.07622464998219043
aF0.4883760808761078
aF0.514427225258621
aa(lp271
F-0.08428718062858707
aF0.49653586016833917
aF0.5654087557342661
aa(lp272
F0.2519154579912763
aF0.40690383678993186
aF0.20749965164211817
aa(lp273
F0.2184262049691293
aF0.5725829115493046
aF0.7644225939842181
aa(lp274
F-0.026356294314993572
aF0.41413715777585464
aF0.5262743912317638
aa(lp275
F0.21801828746501278
aF0.5726219141921516
aF0.7642810529115098
aa(lp276
F-0.07401328593391368
aF0.506347363758205
aF0.49346580456822786
aa(lp277
F0.03799387663757484
aF0.5667264326657986
aF0.4298616876044481
aa(lp278
F-0.013666343131145073
aF0.5929195680296375
aF0.4408939102880596
aa(lp279
F0.07805530678389845
aF0.5015991045287163
aF0.3223389159679762
aa(lp280
F-0.02684518838054316
aF0.4435992269749342
aF0.37850681909010914
aa(lp281
F-0.029649480323760642
aF0.44373728210189634
aF0.36490799003203955
aa(lp282
F-0.013495207820584654
aF0.5909661251583394
aF0.4412795899479675
aa(lp283
F0.03671024926907282
aF0.569107081681816
aF0.43267870979268336
aa(lp284
F0.18306565561388313
aF0.4109065565843042
aF0.4599475039938994
aa(lp285
F-0.034805433338752724
aF0.4444378079022774
aF0.488194116530156
aa(lp286
F0.08028006253332758
aF0.5013814717003833
aF0.3438185797011028
aa(lp287
F0.42847240165024
aF0.42832502192351984
aF0.7048247363032848
aa(lp288
F0.26705759556130754
aF0.32537401554870427
aF0.4161462752052978
aa(lp289
F0.26726708290813855
aF0.3268710783443987
aF0.41362287229562283
aa(lp290
F0.18276430476633432
aF0.390600614637437
aF0.4617198343711398
aa(lp291
F-0.0727982039275328
aF0.5079283217240632
aF0.49360042542089083
aa(lp292
F-0.036564174008879735
aF0.44197480013460694
aF0.49931110842254867
aa(lp293
F0.38067820346579456
aF0.4376900162895951
aF0.7097136754475724
aa(lp294
F0.35344884718374525
aF0.4373434405349127
aF0.7071538226174479
aa(lp295
F0.35344884718374525
aF0.4373434405349127
aF0.7071538226174479
aa(lp296
F0.4646221877458728
aF0.4293970672259273
aF0.6973175890797836
aa(lp297
F-0.07176769805387646
aF0.6069107565342576
aF0.3851963932258906
aa(lp298
F-0.036765386077302425
aF0.4414102966556392
aF0.2932822493648459
aa(lp299
F-0.08022879539044697
aF0.4909825603814353
aF0.5200316643420616
aa(lp300
F0.3086693067875568
aF0.3238491005100666
aF0.44489078808733634
aa(lp301
F-0.1304292764545026
aF0.6229832369404426
aF0.6559692674592421
aa(lp302
F0.21288481986558727
aF0.32074491991363346
aF0.43177880299068744
aa(lp303
F0.4489005586351919
aF0.44759270212812147
aF0.7108021446095869
aa(lp304
F-0.07272740437793723
aF0.6043075852911147
aF0.3841058402546365
aa(lp305
F0.46542789452609046
aF0.45365771102362934
aF0.7298807473358833
aa(lp306
F-0.07896499116517501
aF0.4870208410176186
aF0.5201768410182743
aa(lp307
F0.4529130652588949
aF0.45449812436560433
aF0.7297698658738341
aa(lp308
F-0.13123316166577662
aF0.6211544302823652
aF0.6559126112991239
aa(lp309
F0.2534475120136512
aF0.3298896590282517
aF0.44557915434870843
aa(lp310
F0.21285441800096871
aF0.3202736167835248
aF0.4268912795772806
aa(lp311
F0.2775883725593134
aF0.3303946843359469
aF0.45001382008904034
aa(lp312
F0.2570132650251208
aF0.327561819844278
aF0.41544443785599877
aa(lp313
F0.3090153003129641
aF0.32261765414843874
aF0.4401747976246824
aa(lp314
F0.4459266166647162
aF0.4292504142794808
aF0.699292045837137
aa(lp315
F0.19818410981440404
aF0.31828176395694396
aF0.41987236884643797
aa(lp316
F-0.07822841469531044
aF0.4311233341711088
aF0.5694899130955461
aa(lp317
F0.32097588770601526
aF0.3189444877382195
aF0.4263327659110186
aa(lp318
F0.3236052109593848
aF0.3185859800610397
aF0.4291978897202693
aa(lp319
F0.1979922970352698
aF0.31830755485472295
aF0.42280753270807214
aa(lp320
F0.08742953048898588
aF0.4146444289710709
aF0.44351393491036506
aa(lp321
F0.177931287599211
aF0.4189123042844346
aF0.6856054303021246
aa(lp322
F0.27570450871702284
aF0.34011523265547516
aF0.4582395205299659
aa(lp323
F0.08369738154730938
aF0.4486683484651287
aF0.18913286522286948
aa(lp324
F0.08376199725656101
aF0.44881413976852985
aF0.18704080754086352
aa(lp325
F0.18209681099756828
aF0.42006696601839383
aF0.6825393290065842
aa(lp326
F0.08705781577222384
aF0.38843946026474346
aF0.44394222225992186
aa(lp327
F0.2739508343300938
aF0.3446694036068689
aF0.458486281132867
aa.